ARM GAS  /var/folders/6z/bj4rvlwn0mvdnknwnn42jd6r0000gn/T//ccvcQ9wF.s 			page 1


   1              		.cpu cortex-m7
   2              		.arch armv7e-m
   3              		.fpu fpv5-d16
   4              		.eabi_attribute 28, 1
   5              		.eabi_attribute 20, 1
   6              		.eabi_attribute 21, 1
   7              		.eabi_attribute 23, 3
   8              		.eabi_attribute 24, 1
   9              		.eabi_attribute 25, 1
  10              		.eabi_attribute 26, 1
  11              		.eabi_attribute 30, 1
  12              		.eabi_attribute 34, 1
  13              		.eabi_attribute 18, 4
  14              		.file	"etharp.c"
  15              		.text
  16              	.Ltext0:
  17              		.cfi_sections	.debug_frame
  18              		.file 1 "Middlewares/Third_Party/LwIP/src/core/ipv4/etharp.c"
  19              		.section	.text.etharp_free_entry,"ax",%progbits
  20              		.align	1
  21              		.syntax unified
  22              		.thumb
  23              		.thumb_func
  25              	etharp_free_entry:
  26              	.LVL0:
  27              	.LFB170:
   1:Middlewares/Third_Party/LwIP/src/core/ipv4/etharp.c **** /**
   2:Middlewares/Third_Party/LwIP/src/core/ipv4/etharp.c ****  * @file
   3:Middlewares/Third_Party/LwIP/src/core/ipv4/etharp.c ****  * Address Resolution Protocol module for IP over Ethernet
   4:Middlewares/Third_Party/LwIP/src/core/ipv4/etharp.c ****  *
   5:Middlewares/Third_Party/LwIP/src/core/ipv4/etharp.c ****  * Functionally, ARP is divided into two parts. The first maps an IP address
   6:Middlewares/Third_Party/LwIP/src/core/ipv4/etharp.c ****  * to a physical address when sending a packet, and the second part answers
   7:Middlewares/Third_Party/LwIP/src/core/ipv4/etharp.c ****  * requests from other machines for our physical address.
   8:Middlewares/Third_Party/LwIP/src/core/ipv4/etharp.c ****  *
   9:Middlewares/Third_Party/LwIP/src/core/ipv4/etharp.c ****  * This implementation complies with RFC 826 (Ethernet ARP). It supports
  10:Middlewares/Third_Party/LwIP/src/core/ipv4/etharp.c ****  * Gratuitious ARP from RFC3220 (IP Mobility Support for IPv4) section 4.6
  11:Middlewares/Third_Party/LwIP/src/core/ipv4/etharp.c ****  * if an interface calls etharp_gratuitous(our_netif) upon address change.
  12:Middlewares/Third_Party/LwIP/src/core/ipv4/etharp.c ****  */
  13:Middlewares/Third_Party/LwIP/src/core/ipv4/etharp.c **** 
  14:Middlewares/Third_Party/LwIP/src/core/ipv4/etharp.c **** /*
  15:Middlewares/Third_Party/LwIP/src/core/ipv4/etharp.c ****  * Copyright (c) 2001-2003 Swedish Institute of Computer Science.
  16:Middlewares/Third_Party/LwIP/src/core/ipv4/etharp.c ****  * Copyright (c) 2003-2004 Leon Woestenberg <leon.woestenberg@axon.tv>
  17:Middlewares/Third_Party/LwIP/src/core/ipv4/etharp.c ****  * Copyright (c) 2003-2004 Axon Digital Design B.V., The Netherlands.
  18:Middlewares/Third_Party/LwIP/src/core/ipv4/etharp.c ****  * All rights reserved.
  19:Middlewares/Third_Party/LwIP/src/core/ipv4/etharp.c ****  *
  20:Middlewares/Third_Party/LwIP/src/core/ipv4/etharp.c ****  * Redistribution and use in source and binary forms, with or without modification,
  21:Middlewares/Third_Party/LwIP/src/core/ipv4/etharp.c ****  * are permitted provided that the following conditions are met:
  22:Middlewares/Third_Party/LwIP/src/core/ipv4/etharp.c ****  *
  23:Middlewares/Third_Party/LwIP/src/core/ipv4/etharp.c ****  * 1. Redistributions of source code must retain the above copyright notice,
  24:Middlewares/Third_Party/LwIP/src/core/ipv4/etharp.c ****  *    this list of conditions and the following disclaimer.
  25:Middlewares/Third_Party/LwIP/src/core/ipv4/etharp.c ****  * 2. Redistributions in binary form must reproduce the above copyright notice,
  26:Middlewares/Third_Party/LwIP/src/core/ipv4/etharp.c ****  *    this list of conditions and the following disclaimer in the documentation
  27:Middlewares/Third_Party/LwIP/src/core/ipv4/etharp.c ****  *    and/or other materials provided with the distribution.
  28:Middlewares/Third_Party/LwIP/src/core/ipv4/etharp.c ****  * 3. The name of the author may not be used to endorse or promote products
  29:Middlewares/Third_Party/LwIP/src/core/ipv4/etharp.c ****  *    derived from this software without specific prior written permission.
  30:Middlewares/Third_Party/LwIP/src/core/ipv4/etharp.c ****  *
  31:Middlewares/Third_Party/LwIP/src/core/ipv4/etharp.c ****  * THIS SOFTWARE IS PROVIDED BY THE AUTHOR ``AS IS'' AND ANY EXPRESS OR IMPLIED
ARM GAS  /var/folders/6z/bj4rvlwn0mvdnknwnn42jd6r0000gn/T//ccvcQ9wF.s 			page 2


  32:Middlewares/Third_Party/LwIP/src/core/ipv4/etharp.c ****  * WARRANTIES, INCLUDING, BUT NOT LIMITED TO, THE IMPLIED WARRANTIES OF
  33:Middlewares/Third_Party/LwIP/src/core/ipv4/etharp.c ****  * MERCHANTABILITY AND FITNESS FOR A PARTICULAR PURPOSE ARE DISCLAIMED. IN NO EVENT
  34:Middlewares/Third_Party/LwIP/src/core/ipv4/etharp.c ****  * SHALL THE AUTHOR BE LIABLE FOR ANY DIRECT, INDIRECT, INCIDENTAL, SPECIAL,
  35:Middlewares/Third_Party/LwIP/src/core/ipv4/etharp.c ****  * EXEMPLARY, OR CONSEQUENTIAL DAMAGES (INCLUDING, BUT NOT LIMITED TO, PROCUREMENT
  36:Middlewares/Third_Party/LwIP/src/core/ipv4/etharp.c ****  * OF SUBSTITUTE GOODS OR SERVICES; LOSS OF USE, DATA, OR PROFITS; OR BUSINESS
  37:Middlewares/Third_Party/LwIP/src/core/ipv4/etharp.c ****  * INTERRUPTION) HOWEVER CAUSED AND ON ANY THEORY OF LIABILITY, WHETHER IN
  38:Middlewares/Third_Party/LwIP/src/core/ipv4/etharp.c ****  * CONTRACT, STRICT LIABILITY, OR TORT (INCLUDING NEGLIGENCE OR OTHERWISE) ARISING
  39:Middlewares/Third_Party/LwIP/src/core/ipv4/etharp.c ****  * IN ANY WAY OUT OF THE USE OF THIS SOFTWARE, EVEN IF ADVISED OF THE POSSIBILITY
  40:Middlewares/Third_Party/LwIP/src/core/ipv4/etharp.c ****  * OF SUCH DAMAGE.
  41:Middlewares/Third_Party/LwIP/src/core/ipv4/etharp.c ****  *
  42:Middlewares/Third_Party/LwIP/src/core/ipv4/etharp.c ****  * This file is part of the lwIP TCP/IP stack.
  43:Middlewares/Third_Party/LwIP/src/core/ipv4/etharp.c ****  *
  44:Middlewares/Third_Party/LwIP/src/core/ipv4/etharp.c ****  */
  45:Middlewares/Third_Party/LwIP/src/core/ipv4/etharp.c **** 
  46:Middlewares/Third_Party/LwIP/src/core/ipv4/etharp.c **** #include "lwip/opt.h"
  47:Middlewares/Third_Party/LwIP/src/core/ipv4/etharp.c **** 
  48:Middlewares/Third_Party/LwIP/src/core/ipv4/etharp.c **** #if LWIP_IPV4 && LWIP_ARP /* don't build if not configured for use in lwipopts.h */
  49:Middlewares/Third_Party/LwIP/src/core/ipv4/etharp.c **** 
  50:Middlewares/Third_Party/LwIP/src/core/ipv4/etharp.c **** #include "lwip/etharp.h"
  51:Middlewares/Third_Party/LwIP/src/core/ipv4/etharp.c **** #include "lwip/stats.h"
  52:Middlewares/Third_Party/LwIP/src/core/ipv4/etharp.c **** #include "lwip/snmp.h"
  53:Middlewares/Third_Party/LwIP/src/core/ipv4/etharp.c **** #include "lwip/dhcp.h"
  54:Middlewares/Third_Party/LwIP/src/core/ipv4/etharp.c **** #include "lwip/autoip.h"
  55:Middlewares/Third_Party/LwIP/src/core/ipv4/etharp.c **** #include "lwip/prot/iana.h"
  56:Middlewares/Third_Party/LwIP/src/core/ipv4/etharp.c **** #include "netif/ethernet.h"
  57:Middlewares/Third_Party/LwIP/src/core/ipv4/etharp.c **** 
  58:Middlewares/Third_Party/LwIP/src/core/ipv4/etharp.c **** #include <string.h>
  59:Middlewares/Third_Party/LwIP/src/core/ipv4/etharp.c **** 
  60:Middlewares/Third_Party/LwIP/src/core/ipv4/etharp.c **** #ifdef LWIP_HOOK_FILENAME
  61:Middlewares/Third_Party/LwIP/src/core/ipv4/etharp.c **** #include LWIP_HOOK_FILENAME
  62:Middlewares/Third_Party/LwIP/src/core/ipv4/etharp.c **** #endif
  63:Middlewares/Third_Party/LwIP/src/core/ipv4/etharp.c **** 
  64:Middlewares/Third_Party/LwIP/src/core/ipv4/etharp.c **** /** Re-request a used ARP entry 1 minute before it would expire to prevent
  65:Middlewares/Third_Party/LwIP/src/core/ipv4/etharp.c ****  *  breaking a steadily used connection because the ARP entry timed out. */
  66:Middlewares/Third_Party/LwIP/src/core/ipv4/etharp.c **** #define ARP_AGE_REREQUEST_USED_UNICAST   (ARP_MAXAGE - 30)
  67:Middlewares/Third_Party/LwIP/src/core/ipv4/etharp.c **** #define ARP_AGE_REREQUEST_USED_BROADCAST (ARP_MAXAGE - 15)
  68:Middlewares/Third_Party/LwIP/src/core/ipv4/etharp.c **** 
  69:Middlewares/Third_Party/LwIP/src/core/ipv4/etharp.c **** /** the time an ARP entry stays pending after first request,
  70:Middlewares/Third_Party/LwIP/src/core/ipv4/etharp.c ****  *  for ARP_TMR_INTERVAL = 1000, this is
  71:Middlewares/Third_Party/LwIP/src/core/ipv4/etharp.c ****  *  10 seconds.
  72:Middlewares/Third_Party/LwIP/src/core/ipv4/etharp.c ****  *
  73:Middlewares/Third_Party/LwIP/src/core/ipv4/etharp.c ****  *  @internal Keep this number at least 2, otherwise it might
  74:Middlewares/Third_Party/LwIP/src/core/ipv4/etharp.c ****  *  run out instantly if the timeout occurs directly after a request.
  75:Middlewares/Third_Party/LwIP/src/core/ipv4/etharp.c ****  */
  76:Middlewares/Third_Party/LwIP/src/core/ipv4/etharp.c **** #define ARP_MAXPENDING 5
  77:Middlewares/Third_Party/LwIP/src/core/ipv4/etharp.c **** 
  78:Middlewares/Third_Party/LwIP/src/core/ipv4/etharp.c **** /** ARP states */
  79:Middlewares/Third_Party/LwIP/src/core/ipv4/etharp.c **** enum etharp_state {
  80:Middlewares/Third_Party/LwIP/src/core/ipv4/etharp.c ****   ETHARP_STATE_EMPTY = 0,
  81:Middlewares/Third_Party/LwIP/src/core/ipv4/etharp.c ****   ETHARP_STATE_PENDING,
  82:Middlewares/Third_Party/LwIP/src/core/ipv4/etharp.c ****   ETHARP_STATE_STABLE,
  83:Middlewares/Third_Party/LwIP/src/core/ipv4/etharp.c ****   ETHARP_STATE_STABLE_REREQUESTING_1,
  84:Middlewares/Third_Party/LwIP/src/core/ipv4/etharp.c ****   ETHARP_STATE_STABLE_REREQUESTING_2
  85:Middlewares/Third_Party/LwIP/src/core/ipv4/etharp.c **** #if ETHARP_SUPPORT_STATIC_ENTRIES
  86:Middlewares/Third_Party/LwIP/src/core/ipv4/etharp.c ****   , ETHARP_STATE_STATIC
  87:Middlewares/Third_Party/LwIP/src/core/ipv4/etharp.c **** #endif /* ETHARP_SUPPORT_STATIC_ENTRIES */
  88:Middlewares/Third_Party/LwIP/src/core/ipv4/etharp.c **** };
ARM GAS  /var/folders/6z/bj4rvlwn0mvdnknwnn42jd6r0000gn/T//ccvcQ9wF.s 			page 3


  89:Middlewares/Third_Party/LwIP/src/core/ipv4/etharp.c **** 
  90:Middlewares/Third_Party/LwIP/src/core/ipv4/etharp.c **** struct etharp_entry {
  91:Middlewares/Third_Party/LwIP/src/core/ipv4/etharp.c **** #if ARP_QUEUEING
  92:Middlewares/Third_Party/LwIP/src/core/ipv4/etharp.c ****   /** Pointer to queue of pending outgoing packets on this ARP entry. */
  93:Middlewares/Third_Party/LwIP/src/core/ipv4/etharp.c ****   struct etharp_q_entry *q;
  94:Middlewares/Third_Party/LwIP/src/core/ipv4/etharp.c **** #else /* ARP_QUEUEING */
  95:Middlewares/Third_Party/LwIP/src/core/ipv4/etharp.c ****   /** Pointer to a single pending outgoing packet on this ARP entry. */
  96:Middlewares/Third_Party/LwIP/src/core/ipv4/etharp.c ****   struct pbuf *q;
  97:Middlewares/Third_Party/LwIP/src/core/ipv4/etharp.c **** #endif /* ARP_QUEUEING */
  98:Middlewares/Third_Party/LwIP/src/core/ipv4/etharp.c ****   ip4_addr_t ipaddr;
  99:Middlewares/Third_Party/LwIP/src/core/ipv4/etharp.c ****   struct netif *netif;
 100:Middlewares/Third_Party/LwIP/src/core/ipv4/etharp.c ****   struct eth_addr ethaddr;
 101:Middlewares/Third_Party/LwIP/src/core/ipv4/etharp.c ****   u16_t ctime;
 102:Middlewares/Third_Party/LwIP/src/core/ipv4/etharp.c ****   u8_t state;
 103:Middlewares/Third_Party/LwIP/src/core/ipv4/etharp.c **** };
 104:Middlewares/Third_Party/LwIP/src/core/ipv4/etharp.c **** 
 105:Middlewares/Third_Party/LwIP/src/core/ipv4/etharp.c **** static struct etharp_entry arp_table[ARP_TABLE_SIZE];
 106:Middlewares/Third_Party/LwIP/src/core/ipv4/etharp.c **** 
 107:Middlewares/Third_Party/LwIP/src/core/ipv4/etharp.c **** #if !LWIP_NETIF_HWADDRHINT
 108:Middlewares/Third_Party/LwIP/src/core/ipv4/etharp.c **** static netif_addr_idx_t etharp_cached_entry;
 109:Middlewares/Third_Party/LwIP/src/core/ipv4/etharp.c **** #endif /* !LWIP_NETIF_HWADDRHINT */
 110:Middlewares/Third_Party/LwIP/src/core/ipv4/etharp.c **** 
 111:Middlewares/Third_Party/LwIP/src/core/ipv4/etharp.c **** /** Try hard to create a new entry - we want the IP address to appear in
 112:Middlewares/Third_Party/LwIP/src/core/ipv4/etharp.c ****     the cache (even if this means removing an active entry or so). */
 113:Middlewares/Third_Party/LwIP/src/core/ipv4/etharp.c **** #define ETHARP_FLAG_TRY_HARD     1
 114:Middlewares/Third_Party/LwIP/src/core/ipv4/etharp.c **** #define ETHARP_FLAG_FIND_ONLY    2
 115:Middlewares/Third_Party/LwIP/src/core/ipv4/etharp.c **** #if ETHARP_SUPPORT_STATIC_ENTRIES
 116:Middlewares/Third_Party/LwIP/src/core/ipv4/etharp.c **** #define ETHARP_FLAG_STATIC_ENTRY 4
 117:Middlewares/Third_Party/LwIP/src/core/ipv4/etharp.c **** #endif /* ETHARP_SUPPORT_STATIC_ENTRIES */
 118:Middlewares/Third_Party/LwIP/src/core/ipv4/etharp.c **** 
 119:Middlewares/Third_Party/LwIP/src/core/ipv4/etharp.c **** #if LWIP_NETIF_HWADDRHINT
 120:Middlewares/Third_Party/LwIP/src/core/ipv4/etharp.c **** #define ETHARP_SET_ADDRHINT(netif, addrhint)  do { if (((netif) != NULL) && ((netif)->hints != NULL
 121:Middlewares/Third_Party/LwIP/src/core/ipv4/etharp.c ****                                               (netif)->hints->addr_hint = (addrhint); }} while(0)
 122:Middlewares/Third_Party/LwIP/src/core/ipv4/etharp.c **** #else /* LWIP_NETIF_HWADDRHINT */
 123:Middlewares/Third_Party/LwIP/src/core/ipv4/etharp.c **** #define ETHARP_SET_ADDRHINT(netif, addrhint)  (etharp_cached_entry = (addrhint))
 124:Middlewares/Third_Party/LwIP/src/core/ipv4/etharp.c **** #endif /* LWIP_NETIF_HWADDRHINT */
 125:Middlewares/Third_Party/LwIP/src/core/ipv4/etharp.c **** 
 126:Middlewares/Third_Party/LwIP/src/core/ipv4/etharp.c **** 
 127:Middlewares/Third_Party/LwIP/src/core/ipv4/etharp.c **** /* Check for maximum ARP_TABLE_SIZE */
 128:Middlewares/Third_Party/LwIP/src/core/ipv4/etharp.c **** #if (ARP_TABLE_SIZE > NETIF_ADDR_IDX_MAX)
 129:Middlewares/Third_Party/LwIP/src/core/ipv4/etharp.c **** #error "ARP_TABLE_SIZE must fit in an s16_t, you have to reduce it in your lwipopts.h"
 130:Middlewares/Third_Party/LwIP/src/core/ipv4/etharp.c **** #endif
 131:Middlewares/Third_Party/LwIP/src/core/ipv4/etharp.c **** 
 132:Middlewares/Third_Party/LwIP/src/core/ipv4/etharp.c **** 
 133:Middlewares/Third_Party/LwIP/src/core/ipv4/etharp.c **** static err_t etharp_request_dst(struct netif *netif, const ip4_addr_t *ipaddr, const struct eth_add
 134:Middlewares/Third_Party/LwIP/src/core/ipv4/etharp.c **** static err_t etharp_raw(struct netif *netif,
 135:Middlewares/Third_Party/LwIP/src/core/ipv4/etharp.c ****                         const struct eth_addr *ethsrc_addr, const struct eth_addr *ethdst_addr,
 136:Middlewares/Third_Party/LwIP/src/core/ipv4/etharp.c ****                         const struct eth_addr *hwsrc_addr, const ip4_addr_t *ipsrc_addr,
 137:Middlewares/Third_Party/LwIP/src/core/ipv4/etharp.c ****                         const struct eth_addr *hwdst_addr, const ip4_addr_t *ipdst_addr,
 138:Middlewares/Third_Party/LwIP/src/core/ipv4/etharp.c ****                         const u16_t opcode);
 139:Middlewares/Third_Party/LwIP/src/core/ipv4/etharp.c **** 
 140:Middlewares/Third_Party/LwIP/src/core/ipv4/etharp.c **** #if ARP_QUEUEING
 141:Middlewares/Third_Party/LwIP/src/core/ipv4/etharp.c **** /**
 142:Middlewares/Third_Party/LwIP/src/core/ipv4/etharp.c ****  * Free a complete queue of etharp entries
 143:Middlewares/Third_Party/LwIP/src/core/ipv4/etharp.c ****  *
 144:Middlewares/Third_Party/LwIP/src/core/ipv4/etharp.c ****  * @param q a qeueue of etharp_q_entry's to free
 145:Middlewares/Third_Party/LwIP/src/core/ipv4/etharp.c ****  */
ARM GAS  /var/folders/6z/bj4rvlwn0mvdnknwnn42jd6r0000gn/T//ccvcQ9wF.s 			page 4


 146:Middlewares/Third_Party/LwIP/src/core/ipv4/etharp.c **** static void
 147:Middlewares/Third_Party/LwIP/src/core/ipv4/etharp.c **** free_etharp_q(struct etharp_q_entry *q)
 148:Middlewares/Third_Party/LwIP/src/core/ipv4/etharp.c **** {
 149:Middlewares/Third_Party/LwIP/src/core/ipv4/etharp.c ****   struct etharp_q_entry *r;
 150:Middlewares/Third_Party/LwIP/src/core/ipv4/etharp.c ****   LWIP_ASSERT("q != NULL", q != NULL);
 151:Middlewares/Third_Party/LwIP/src/core/ipv4/etharp.c ****   while (q) {
 152:Middlewares/Third_Party/LwIP/src/core/ipv4/etharp.c ****     r = q;
 153:Middlewares/Third_Party/LwIP/src/core/ipv4/etharp.c ****     q = q->next;
 154:Middlewares/Third_Party/LwIP/src/core/ipv4/etharp.c ****     LWIP_ASSERT("r->p != NULL", (r->p != NULL));
 155:Middlewares/Third_Party/LwIP/src/core/ipv4/etharp.c ****     pbuf_free(r->p);
 156:Middlewares/Third_Party/LwIP/src/core/ipv4/etharp.c ****     memp_free(MEMP_ARP_QUEUE, r);
 157:Middlewares/Third_Party/LwIP/src/core/ipv4/etharp.c ****   }
 158:Middlewares/Third_Party/LwIP/src/core/ipv4/etharp.c **** }
 159:Middlewares/Third_Party/LwIP/src/core/ipv4/etharp.c **** #else /* ARP_QUEUEING */
 160:Middlewares/Third_Party/LwIP/src/core/ipv4/etharp.c **** 
 161:Middlewares/Third_Party/LwIP/src/core/ipv4/etharp.c **** /** Compatibility define: free the queued pbuf */
 162:Middlewares/Third_Party/LwIP/src/core/ipv4/etharp.c **** #define free_etharp_q(q) pbuf_free(q)
 163:Middlewares/Third_Party/LwIP/src/core/ipv4/etharp.c **** 
 164:Middlewares/Third_Party/LwIP/src/core/ipv4/etharp.c **** #endif /* ARP_QUEUEING */
 165:Middlewares/Third_Party/LwIP/src/core/ipv4/etharp.c **** 
 166:Middlewares/Third_Party/LwIP/src/core/ipv4/etharp.c **** /** Clean up ARP table entries */
 167:Middlewares/Third_Party/LwIP/src/core/ipv4/etharp.c **** static void
 168:Middlewares/Third_Party/LwIP/src/core/ipv4/etharp.c **** etharp_free_entry(int i)
 169:Middlewares/Third_Party/LwIP/src/core/ipv4/etharp.c **** {
  28              		.loc 1 169 1 view -0
  29              		.cfi_startproc
  30              		@ args = 0, pretend = 0, frame = 0
  31              		@ frame_needed = 0, uses_anonymous_args = 0
  32              		.loc 1 169 1 is_stmt 0 view .LVU1
  33 0000 10B5     		push	{r4, lr}
  34              	.LCFI0:
  35              		.cfi_def_cfa_offset 8
  36              		.cfi_offset 4, -8
  37              		.cfi_offset 14, -4
  38 0002 0446     		mov	r4, r0
 170:Middlewares/Third_Party/LwIP/src/core/ipv4/etharp.c ****   /* remove from SNMP ARP index tree */
 171:Middlewares/Third_Party/LwIP/src/core/ipv4/etharp.c ****   mib2_remove_arp_entry(arp_table[i].netif, &arp_table[i].ipaddr);
  39              		.loc 1 171 66 is_stmt 1 view .LVU2
 172:Middlewares/Third_Party/LwIP/src/core/ipv4/etharp.c ****   /* and empty packet queue */
 173:Middlewares/Third_Party/LwIP/src/core/ipv4/etharp.c ****   if (arp_table[i].q != NULL) {
  40              		.loc 1 173 3 view .LVU3
  41              		.loc 1 173 19 is_stmt 0 view .LVU4
  42 0004 00EB4002 		add	r2, r0, r0, lsl #1
  43 0008 094B     		ldr	r3, .L4
  44 000a 53F83200 		ldr	r0, [r3, r2, lsl #3]
  45              	.LVL1:
  46              		.loc 1 173 6 view .LVU5
  47 000e 38B1     		cbz	r0, .L2
 174:Middlewares/Third_Party/LwIP/src/core/ipv4/etharp.c ****     /* remove all queued packets */
 175:Middlewares/Third_Party/LwIP/src/core/ipv4/etharp.c ****     LWIP_DEBUGF(ETHARP_DEBUG, ("etharp_free_entry: freeing entry %"U16_F", packet queue %p.\n", (u1
  48              		.loc 1 175 133 is_stmt 1 view .LVU6
 176:Middlewares/Third_Party/LwIP/src/core/ipv4/etharp.c ****     free_etharp_q(arp_table[i].q);
  49              		.loc 1 176 5 view .LVU7
  50 0010 FFF7FEFF 		bl	pbuf_free
  51              	.LVL2:
 177:Middlewares/Third_Party/LwIP/src/core/ipv4/etharp.c ****     arp_table[i].q = NULL;
  52              		.loc 1 177 5 view .LVU8
ARM GAS  /var/folders/6z/bj4rvlwn0mvdnknwnn42jd6r0000gn/T//ccvcQ9wF.s 			page 5


  53              		.loc 1 177 20 is_stmt 0 view .LVU9
  54 0014 04EB4403 		add	r3, r4, r4, lsl #1
  55 0018 DB00     		lsls	r3, r3, #3
  56 001a 054A     		ldr	r2, .L4
  57 001c 0021     		movs	r1, #0
  58 001e D150     		str	r1, [r2, r3]
  59              	.L2:
 178:Middlewares/Third_Party/LwIP/src/core/ipv4/etharp.c ****   }
 179:Middlewares/Third_Party/LwIP/src/core/ipv4/etharp.c ****   /* recycle entry for re-use */
 180:Middlewares/Third_Party/LwIP/src/core/ipv4/etharp.c ****   arp_table[i].state = ETHARP_STATE_EMPTY;
  60              		.loc 1 180 3 is_stmt 1 view .LVU10
  61              		.loc 1 180 22 is_stmt 0 view .LVU11
  62 0020 04EB4404 		add	r4, r4, r4, lsl #1
  63              	.LVL3:
  64              		.loc 1 180 22 view .LVU12
  65 0024 024B     		ldr	r3, .L4
  66 0026 03EBC403 		add	r3, r3, r4, lsl #3
  67 002a 0022     		movs	r2, #0
  68 002c 1A75     		strb	r2, [r3, #20]
 181:Middlewares/Third_Party/LwIP/src/core/ipv4/etharp.c **** #ifdef LWIP_DEBUG
 182:Middlewares/Third_Party/LwIP/src/core/ipv4/etharp.c ****   /* for debugging, clean out the complete entry */
 183:Middlewares/Third_Party/LwIP/src/core/ipv4/etharp.c ****   arp_table[i].ctime = 0;
 184:Middlewares/Third_Party/LwIP/src/core/ipv4/etharp.c ****   arp_table[i].netif = NULL;
 185:Middlewares/Third_Party/LwIP/src/core/ipv4/etharp.c ****   ip4_addr_set_zero(&arp_table[i].ipaddr);
 186:Middlewares/Third_Party/LwIP/src/core/ipv4/etharp.c ****   arp_table[i].ethaddr = ethzero;
 187:Middlewares/Third_Party/LwIP/src/core/ipv4/etharp.c **** #endif /* LWIP_DEBUG */
 188:Middlewares/Third_Party/LwIP/src/core/ipv4/etharp.c **** }
  69              		.loc 1 188 1 view .LVU13
  70 002e 10BD     		pop	{r4, pc}
  71              	.L5:
  72              		.align	2
  73              	.L4:
  74 0030 00000000 		.word	arp_table
  75              		.cfi_endproc
  76              	.LFE170:
  78              		.section	.rodata.etharp_find_entry.str1.4,"aMS",%progbits,1
  79              		.align	2
  80              	.LC0:
  81 0000 4D696464 		.ascii	"Middlewares/Third_Party/LwIP/src/core/ipv4/etharp.c"
  81      6C657761 
  81      7265732F 
  81      54686972 
  81      645F5061 
  82 0033 00       		.ascii	"\000"
  83              		.align	2
  84              	.LC1:
  85 0034 6172705F 		.ascii	"arp_table[i].q == NULL\000"
  85      7461626C 
  85      655B695D 
  85      2E71203D 
  85      3D204E55 
  86 004b 00       		.align	2
  87              	.LC2:
  88 004c 41737365 		.ascii	"Assertion \"%s\" failed at line %d in %s\012\000"
  88      7274696F 
  88      6E202225 
  88      73222066 
ARM GAS  /var/folders/6z/bj4rvlwn0mvdnknwnn42jd6r0000gn/T//ccvcQ9wF.s 			page 6


  88      61696C65 
  89              		.align	2
  90              	.LC3:
  91 0074 69203C20 		.ascii	"i < ARP_TABLE_SIZE\000"
  91      4152505F 
  91      5441424C 
  91      455F5349 
  91      5A4500
  92 0087 00       		.align	2
  93              	.LC4:
  94 0088 6172705F 		.ascii	"arp_table[i].state == ETHARP_STATE_EMPTY\000"
  94      7461626C 
  94      655B695D 
  94      2E737461 
  94      7465203D 
  95              		.section	.text.etharp_find_entry,"ax",%progbits
  96              		.align	1
  97              		.syntax unified
  98              		.thumb
  99              		.thumb_func
 101              	etharp_find_entry:
 102              	.LVL4:
 103              	.LFB172:
 189:Middlewares/Third_Party/LwIP/src/core/ipv4/etharp.c **** 
 190:Middlewares/Third_Party/LwIP/src/core/ipv4/etharp.c **** /**
 191:Middlewares/Third_Party/LwIP/src/core/ipv4/etharp.c ****  * Clears expired entries in the ARP table.
 192:Middlewares/Third_Party/LwIP/src/core/ipv4/etharp.c ****  *
 193:Middlewares/Third_Party/LwIP/src/core/ipv4/etharp.c ****  * This function should be called every ARP_TMR_INTERVAL milliseconds (1 second),
 194:Middlewares/Third_Party/LwIP/src/core/ipv4/etharp.c ****  * in order to expire entries in the ARP table.
 195:Middlewares/Third_Party/LwIP/src/core/ipv4/etharp.c ****  */
 196:Middlewares/Third_Party/LwIP/src/core/ipv4/etharp.c **** void
 197:Middlewares/Third_Party/LwIP/src/core/ipv4/etharp.c **** etharp_tmr(void)
 198:Middlewares/Third_Party/LwIP/src/core/ipv4/etharp.c **** {
 199:Middlewares/Third_Party/LwIP/src/core/ipv4/etharp.c ****   int i;
 200:Middlewares/Third_Party/LwIP/src/core/ipv4/etharp.c **** 
 201:Middlewares/Third_Party/LwIP/src/core/ipv4/etharp.c ****   LWIP_DEBUGF(ETHARP_DEBUG, ("etharp_timer\n"));
 202:Middlewares/Third_Party/LwIP/src/core/ipv4/etharp.c ****   /* remove expired entries from the ARP table */
 203:Middlewares/Third_Party/LwIP/src/core/ipv4/etharp.c ****   for (i = 0; i < ARP_TABLE_SIZE; ++i) {
 204:Middlewares/Third_Party/LwIP/src/core/ipv4/etharp.c ****     u8_t state = arp_table[i].state;
 205:Middlewares/Third_Party/LwIP/src/core/ipv4/etharp.c ****     if (state != ETHARP_STATE_EMPTY
 206:Middlewares/Third_Party/LwIP/src/core/ipv4/etharp.c **** #if ETHARP_SUPPORT_STATIC_ENTRIES
 207:Middlewares/Third_Party/LwIP/src/core/ipv4/etharp.c ****         && (state != ETHARP_STATE_STATIC)
 208:Middlewares/Third_Party/LwIP/src/core/ipv4/etharp.c **** #endif /* ETHARP_SUPPORT_STATIC_ENTRIES */
 209:Middlewares/Third_Party/LwIP/src/core/ipv4/etharp.c ****        ) {
 210:Middlewares/Third_Party/LwIP/src/core/ipv4/etharp.c ****       arp_table[i].ctime++;
 211:Middlewares/Third_Party/LwIP/src/core/ipv4/etharp.c ****       if ((arp_table[i].ctime >= ARP_MAXAGE) ||
 212:Middlewares/Third_Party/LwIP/src/core/ipv4/etharp.c ****           ((arp_table[i].state == ETHARP_STATE_PENDING)  &&
 213:Middlewares/Third_Party/LwIP/src/core/ipv4/etharp.c ****            (arp_table[i].ctime >= ARP_MAXPENDING))) {
 214:Middlewares/Third_Party/LwIP/src/core/ipv4/etharp.c ****         /* pending or stable entry has become old! */
 215:Middlewares/Third_Party/LwIP/src/core/ipv4/etharp.c ****         LWIP_DEBUGF(ETHARP_DEBUG, ("etharp_timer: expired %s entry %d.\n",
 216:Middlewares/Third_Party/LwIP/src/core/ipv4/etharp.c ****                                    arp_table[i].state >= ETHARP_STATE_STABLE ? "stable" : "pending"
 217:Middlewares/Third_Party/LwIP/src/core/ipv4/etharp.c ****         /* clean up entries that have just been expired */
 218:Middlewares/Third_Party/LwIP/src/core/ipv4/etharp.c ****         etharp_free_entry(i);
 219:Middlewares/Third_Party/LwIP/src/core/ipv4/etharp.c ****       } else if (arp_table[i].state == ETHARP_STATE_STABLE_REREQUESTING_1) {
 220:Middlewares/Third_Party/LwIP/src/core/ipv4/etharp.c ****         /* Don't send more than one request every 2 seconds. */
 221:Middlewares/Third_Party/LwIP/src/core/ipv4/etharp.c ****         arp_table[i].state = ETHARP_STATE_STABLE_REREQUESTING_2;
 222:Middlewares/Third_Party/LwIP/src/core/ipv4/etharp.c ****       } else if (arp_table[i].state == ETHARP_STATE_STABLE_REREQUESTING_2) {
ARM GAS  /var/folders/6z/bj4rvlwn0mvdnknwnn42jd6r0000gn/T//ccvcQ9wF.s 			page 7


 223:Middlewares/Third_Party/LwIP/src/core/ipv4/etharp.c ****         /* Reset state to stable, so that the next transmitted packet will
 224:Middlewares/Third_Party/LwIP/src/core/ipv4/etharp.c ****            re-send an ARP request. */
 225:Middlewares/Third_Party/LwIP/src/core/ipv4/etharp.c ****         arp_table[i].state = ETHARP_STATE_STABLE;
 226:Middlewares/Third_Party/LwIP/src/core/ipv4/etharp.c ****       } else if (arp_table[i].state == ETHARP_STATE_PENDING) {
 227:Middlewares/Third_Party/LwIP/src/core/ipv4/etharp.c ****         /* still pending, resend an ARP query */
 228:Middlewares/Third_Party/LwIP/src/core/ipv4/etharp.c ****         etharp_request(arp_table[i].netif, &arp_table[i].ipaddr);
 229:Middlewares/Third_Party/LwIP/src/core/ipv4/etharp.c ****       }
 230:Middlewares/Third_Party/LwIP/src/core/ipv4/etharp.c ****     }
 231:Middlewares/Third_Party/LwIP/src/core/ipv4/etharp.c ****   }
 232:Middlewares/Third_Party/LwIP/src/core/ipv4/etharp.c **** }
 233:Middlewares/Third_Party/LwIP/src/core/ipv4/etharp.c **** 
 234:Middlewares/Third_Party/LwIP/src/core/ipv4/etharp.c **** /**
 235:Middlewares/Third_Party/LwIP/src/core/ipv4/etharp.c ****  * Search the ARP table for a matching or new entry.
 236:Middlewares/Third_Party/LwIP/src/core/ipv4/etharp.c ****  *
 237:Middlewares/Third_Party/LwIP/src/core/ipv4/etharp.c ****  * If an IP address is given, return a pending or stable ARP entry that matches
 238:Middlewares/Third_Party/LwIP/src/core/ipv4/etharp.c ****  * the address. If no match is found, create a new entry with this address set,
 239:Middlewares/Third_Party/LwIP/src/core/ipv4/etharp.c ****  * but in state ETHARP_EMPTY. The caller must check and possibly change the
 240:Middlewares/Third_Party/LwIP/src/core/ipv4/etharp.c ****  * state of the returned entry.
 241:Middlewares/Third_Party/LwIP/src/core/ipv4/etharp.c ****  *
 242:Middlewares/Third_Party/LwIP/src/core/ipv4/etharp.c ****  * If ipaddr is NULL, return a initialized new entry in state ETHARP_EMPTY.
 243:Middlewares/Third_Party/LwIP/src/core/ipv4/etharp.c ****  *
 244:Middlewares/Third_Party/LwIP/src/core/ipv4/etharp.c ****  * In all cases, attempt to create new entries from an empty entry. If no
 245:Middlewares/Third_Party/LwIP/src/core/ipv4/etharp.c ****  * empty entries are available and ETHARP_FLAG_TRY_HARD flag is set, recycle
 246:Middlewares/Third_Party/LwIP/src/core/ipv4/etharp.c ****  * old entries. Heuristic choose the least important entry for recycling.
 247:Middlewares/Third_Party/LwIP/src/core/ipv4/etharp.c ****  *
 248:Middlewares/Third_Party/LwIP/src/core/ipv4/etharp.c ****  * @param ipaddr IP address to find in ARP cache, or to add if not found.
 249:Middlewares/Third_Party/LwIP/src/core/ipv4/etharp.c ****  * @param flags See @ref etharp_state
 250:Middlewares/Third_Party/LwIP/src/core/ipv4/etharp.c ****  * @param netif netif related to this address (used for NETIF_HWADDRHINT)
 251:Middlewares/Third_Party/LwIP/src/core/ipv4/etharp.c ****  *
 252:Middlewares/Third_Party/LwIP/src/core/ipv4/etharp.c ****  * @return The ARP entry index that matched or is created, ERR_MEM if no
 253:Middlewares/Third_Party/LwIP/src/core/ipv4/etharp.c ****  * entry is found or could be recycled.
 254:Middlewares/Third_Party/LwIP/src/core/ipv4/etharp.c ****  */
 255:Middlewares/Third_Party/LwIP/src/core/ipv4/etharp.c **** static s16_t
 256:Middlewares/Third_Party/LwIP/src/core/ipv4/etharp.c **** etharp_find_entry(const ip4_addr_t *ipaddr, u8_t flags, struct netif *netif)
 257:Middlewares/Third_Party/LwIP/src/core/ipv4/etharp.c **** {
 104              		.loc 1 257 1 is_stmt 1 view -0
 105              		.cfi_startproc
 106              		@ args = 0, pretend = 0, frame = 16
 107              		@ frame_needed = 0, uses_anonymous_args = 0
 108              		.loc 1 257 1 is_stmt 0 view .LVU15
 109 0000 2DE9F04F 		push	{r4, r5, r6, r7, r8, r9, r10, fp, lr}
 110              	.LCFI1:
 111              		.cfi_def_cfa_offset 36
 112              		.cfi_offset 4, -36
 113              		.cfi_offset 5, -32
 114              		.cfi_offset 6, -28
 115              		.cfi_offset 7, -24
 116              		.cfi_offset 8, -20
 117              		.cfi_offset 9, -16
 118              		.cfi_offset 10, -12
 119              		.cfi_offset 11, -8
 120              		.cfi_offset 14, -4
 121 0004 85B0     		sub	sp, sp, #20
 122              	.LCFI2:
 123              		.cfi_def_cfa_offset 56
 124 0006 0646     		mov	r6, r0
 125 0008 1746     		mov	r7, r2
ARM GAS  /var/folders/6z/bj4rvlwn0mvdnknwnn42jd6r0000gn/T//ccvcQ9wF.s 			page 8


 258:Middlewares/Third_Party/LwIP/src/core/ipv4/etharp.c ****   s16_t old_pending = ARP_TABLE_SIZE, old_stable = ARP_TABLE_SIZE;
 126              		.loc 1 258 3 is_stmt 1 view .LVU16
 127              	.LVL5:
 259:Middlewares/Third_Party/LwIP/src/core/ipv4/etharp.c ****   s16_t empty = ARP_TABLE_SIZE;
 128              		.loc 1 259 3 view .LVU17
 260:Middlewares/Third_Party/LwIP/src/core/ipv4/etharp.c ****   s16_t i = 0;
 129              		.loc 1 260 3 view .LVU18
 261:Middlewares/Third_Party/LwIP/src/core/ipv4/etharp.c ****   /* oldest entry with packets on queue */
 262:Middlewares/Third_Party/LwIP/src/core/ipv4/etharp.c ****   s16_t old_queue = ARP_TABLE_SIZE;
 130              		.loc 1 262 3 view .LVU19
 263:Middlewares/Third_Party/LwIP/src/core/ipv4/etharp.c ****   /* its age */
 264:Middlewares/Third_Party/LwIP/src/core/ipv4/etharp.c ****   u16_t age_queue = 0, age_pending = 0, age_stable = 0;
 131              		.loc 1 264 3 view .LVU20
 265:Middlewares/Third_Party/LwIP/src/core/ipv4/etharp.c **** 
 266:Middlewares/Third_Party/LwIP/src/core/ipv4/etharp.c ****   LWIP_UNUSED_ARG(netif);
 132              		.loc 1 266 3 view .LVU21
 267:Middlewares/Third_Party/LwIP/src/core/ipv4/etharp.c **** 
 268:Middlewares/Third_Party/LwIP/src/core/ipv4/etharp.c ****   /**
 269:Middlewares/Third_Party/LwIP/src/core/ipv4/etharp.c ****    * a) do a search through the cache, remember candidates
 270:Middlewares/Third_Party/LwIP/src/core/ipv4/etharp.c ****    * b) select candidate entry
 271:Middlewares/Third_Party/LwIP/src/core/ipv4/etharp.c ****    * c) create new entry
 272:Middlewares/Third_Party/LwIP/src/core/ipv4/etharp.c ****    */
 273:Middlewares/Third_Party/LwIP/src/core/ipv4/etharp.c **** 
 274:Middlewares/Third_Party/LwIP/src/core/ipv4/etharp.c ****   /* a) in a single search sweep, do all of this
 275:Middlewares/Third_Party/LwIP/src/core/ipv4/etharp.c ****    * 1) remember the first empty entry (if any)
 276:Middlewares/Third_Party/LwIP/src/core/ipv4/etharp.c ****    * 2) remember the oldest stable entry (if any)
 277:Middlewares/Third_Party/LwIP/src/core/ipv4/etharp.c ****    * 3) remember the oldest pending entry without queued packets (if any)
 278:Middlewares/Third_Party/LwIP/src/core/ipv4/etharp.c ****    * 4) remember the oldest pending entry with queued packets (if any)
 279:Middlewares/Third_Party/LwIP/src/core/ipv4/etharp.c ****    * 5) search for a matching IP entry, either pending or stable
 280:Middlewares/Third_Party/LwIP/src/core/ipv4/etharp.c ****    *    until 5 matches, or all entries are searched for.
 281:Middlewares/Third_Party/LwIP/src/core/ipv4/etharp.c ****    */
 282:Middlewares/Third_Party/LwIP/src/core/ipv4/etharp.c **** 
 283:Middlewares/Third_Party/LwIP/src/core/ipv4/etharp.c ****   for (i = 0; i < ARP_TABLE_SIZE; ++i) {
 133              		.loc 1 283 3 view .LVU22
 264:Middlewares/Third_Party/LwIP/src/core/ipv4/etharp.c **** 
 134              		.loc 1 264 41 is_stmt 0 view .LVU23
 135 000a 4FF00009 		mov	r9, #0
 264:Middlewares/Third_Party/LwIP/src/core/ipv4/etharp.c **** 
 136              		.loc 1 264 24 view .LVU24
 137 000e CDF80C90 		str	r9, [sp, #12]
 264:Middlewares/Third_Party/LwIP/src/core/ipv4/etharp.c **** 
 138              		.loc 1 264 9 view .LVU25
 139 0012 CB46     		mov	fp, r9
 262:Middlewares/Third_Party/LwIP/src/core/ipv4/etharp.c ****   /* its age */
 140              		.loc 1 262 9 view .LVU26
 141 0014 4FF00A0A 		mov	r10, #10
 142              		.loc 1 283 10 view .LVU27
 143 0018 4B46     		mov	r3, r9
 259:Middlewares/Third_Party/LwIP/src/core/ipv4/etharp.c ****   s16_t i = 0;
 144              		.loc 1 259 9 view .LVU28
 145 001a 5546     		mov	r5, r10
 258:Middlewares/Third_Party/LwIP/src/core/ipv4/etharp.c ****   s16_t empty = ARP_TABLE_SIZE;
 146              		.loc 1 258 39 view .LVU29
 147 001c D046     		mov	r8, r10
 258:Middlewares/Third_Party/LwIP/src/core/ipv4/etharp.c ****   s16_t empty = ARP_TABLE_SIZE;
 148              		.loc 1 258 9 view .LVU30
 149 001e CDF808A0 		str	r10, [sp, #8]
ARM GAS  /var/folders/6z/bj4rvlwn0mvdnknwnn42jd6r0000gn/T//ccvcQ9wF.s 			page 9


 150 0022 0191     		str	r1, [sp, #4]
 151              		.loc 1 283 3 view .LVU31
 152 0024 29E0     		b	.L7
 153              	.LVL6:
 154              	.L33:
 155              	.LBB2:
 284:Middlewares/Third_Party/LwIP/src/core/ipv4/etharp.c ****     u8_t state = arp_table[i].state;
 285:Middlewares/Third_Party/LwIP/src/core/ipv4/etharp.c ****     /* no empty entry found yet and now we do find one? */
 286:Middlewares/Third_Party/LwIP/src/core/ipv4/etharp.c ****     if ((empty == ARP_TABLE_SIZE) && (state == ETHARP_STATE_EMPTY)) {
 287:Middlewares/Third_Party/LwIP/src/core/ipv4/etharp.c ****       LWIP_DEBUGF(ETHARP_DEBUG, ("etharp_find_entry: found empty entry %d\n", (int)i));
 288:Middlewares/Third_Party/LwIP/src/core/ipv4/etharp.c ****       /* remember first empty entry */
 289:Middlewares/Third_Party/LwIP/src/core/ipv4/etharp.c ****       empty = i;
 290:Middlewares/Third_Party/LwIP/src/core/ipv4/etharp.c ****     } else if (state != ETHARP_STATE_EMPTY) {
 291:Middlewares/Third_Party/LwIP/src/core/ipv4/etharp.c ****       LWIP_ASSERT("state == ETHARP_STATE_PENDING || state >= ETHARP_STATE_STABLE",
 292:Middlewares/Third_Party/LwIP/src/core/ipv4/etharp.c ****                   state == ETHARP_STATE_PENDING || state >= ETHARP_STATE_STABLE);
 293:Middlewares/Third_Party/LwIP/src/core/ipv4/etharp.c ****       /* if given, does IP address match IP address in ARP entry? */
 294:Middlewares/Third_Party/LwIP/src/core/ipv4/etharp.c ****       if (ipaddr && ip4_addr_cmp(ipaddr, &arp_table[i].ipaddr)
 295:Middlewares/Third_Party/LwIP/src/core/ipv4/etharp.c **** #if ETHARP_TABLE_MATCH_NETIF
 296:Middlewares/Third_Party/LwIP/src/core/ipv4/etharp.c ****           && ((netif == NULL) || (netif == arp_table[i].netif))
 156              		.loc 1 296 11 view .LVU32
 157 0026 002F     		cmp	r7, #0
 158 0028 00F0AD80 		beq	.L21
 159              		.loc 1 296 56 discriminator 1 view .LVU33
 160 002c 5A4A     		ldr	r2, .L38
 161 002e 02EBCE02 		add	r2, r2, lr, lsl #3
 162 0032 9268     		ldr	r2, [r2, #8]
 163              		.loc 1 296 31 discriminator 1 view .LVU34
 164 0034 BA42     		cmp	r2, r7
 165 0036 3AD1     		bne	.L9
 297:Middlewares/Third_Party/LwIP/src/core/ipv4/etharp.c **** #endif /* ETHARP_TABLE_MATCH_NETIF */
 298:Middlewares/Third_Party/LwIP/src/core/ipv4/etharp.c ****          ) {
 299:Middlewares/Third_Party/LwIP/src/core/ipv4/etharp.c ****         LWIP_DEBUGF(ETHARP_DEBUG | LWIP_DBG_TRACE, ("etharp_find_entry: found matching entry %d\n",
 300:Middlewares/Third_Party/LwIP/src/core/ipv4/etharp.c ****         /* found exact IP address match, simply bail out */
 301:Middlewares/Third_Party/LwIP/src/core/ipv4/etharp.c ****         return i;
 166              		.loc 1 301 16 view .LVU35
 167 0038 1D46     		mov	r5, r3
 168              	.LVL7:
 169              		.loc 1 301 16 view .LVU36
 170 003a 7EE0     		b	.L10
 171              	.LVL8:
 172              	.L34:
 302:Middlewares/Third_Party/LwIP/src/core/ipv4/etharp.c ****       }
 303:Middlewares/Third_Party/LwIP/src/core/ipv4/etharp.c ****       /* pending entry? */
 304:Middlewares/Third_Party/LwIP/src/core/ipv4/etharp.c ****       if (state == ETHARP_STATE_PENDING) {
 305:Middlewares/Third_Party/LwIP/src/core/ipv4/etharp.c ****         /* pending with queued packets? */
 306:Middlewares/Third_Party/LwIP/src/core/ipv4/etharp.c ****         if (arp_table[i].q != NULL) {
 173              		.loc 1 306 9 is_stmt 1 view .LVU37
 174              		.loc 1 306 25 is_stmt 0 view .LVU38
 175 003c 04EB4402 		add	r2, r4, r4, lsl #1
 176 0040 5548     		ldr	r0, .L38
 177              	.LVL9:
 178              		.loc 1 306 25 view .LVU39
 179 0042 50F83220 		ldr	r2, [r0, r2, lsl #3]
 180              		.loc 1 306 12 view .LVU40
 181 0046 4AB1     		cbz	r2, .L12
 307:Middlewares/Third_Party/LwIP/src/core/ipv4/etharp.c ****           if (arp_table[i].ctime >= age_queue) {
 182              		.loc 1 307 11 is_stmt 1 view .LVU41
ARM GAS  /var/folders/6z/bj4rvlwn0mvdnknwnn42jd6r0000gn/T//ccvcQ9wF.s 			page 10


 183              		.loc 1 307 27 is_stmt 0 view .LVU42
 184 0048 04EB4404 		add	r4, r4, r4, lsl #1
 185 004c 00EBC402 		add	r2, r0, r4, lsl #3
 186 0050 528A     		ldrh	r2, [r2, #18]
 187              		.loc 1 307 14 view .LVU43
 188 0052 5A45     		cmp	r2, fp
 189 0054 0FD3     		bcc	.L8
 308:Middlewares/Third_Party/LwIP/src/core/ipv4/etharp.c ****             old_queue = i;
 309:Middlewares/Third_Party/LwIP/src/core/ipv4/etharp.c ****             age_queue = arp_table[i].ctime;
 190              		.loc 1 309 23 view .LVU44
 191 0056 9346     		mov	fp, r2
 192              	.LVL10:
 308:Middlewares/Third_Party/LwIP/src/core/ipv4/etharp.c ****             old_queue = i;
 193              		.loc 1 308 23 view .LVU45
 194 0058 9A46     		mov	r10, r3
 195              	.LVL11:
 308:Middlewares/Third_Party/LwIP/src/core/ipv4/etharp.c ****             old_queue = i;
 196              		.loc 1 308 23 view .LVU46
 197 005a 0CE0     		b	.L8
 198              	.LVL12:
 199              	.L12:
 310:Middlewares/Third_Party/LwIP/src/core/ipv4/etharp.c ****           }
 311:Middlewares/Third_Party/LwIP/src/core/ipv4/etharp.c ****         } else
 312:Middlewares/Third_Party/LwIP/src/core/ipv4/etharp.c ****           /* pending without queued packets? */
 313:Middlewares/Third_Party/LwIP/src/core/ipv4/etharp.c ****         {
 314:Middlewares/Third_Party/LwIP/src/core/ipv4/etharp.c ****           if (arp_table[i].ctime >= age_pending) {
 200              		.loc 1 314 11 is_stmt 1 view .LVU47
 201              		.loc 1 314 27 is_stmt 0 view .LVU48
 202 005c 04EB4404 		add	r4, r4, r4, lsl #1
 203 0060 4D4A     		ldr	r2, .L38
 204 0062 02EBC402 		add	r2, r2, r4, lsl #3
 205 0066 528A     		ldrh	r2, [r2, #18]
 206              		.loc 1 314 14 view .LVU49
 207 0068 0399     		ldr	r1, [sp, #12]
 208 006a 8A42     		cmp	r2, r1
 209 006c 03D3     		bcc	.L8
 315:Middlewares/Third_Party/LwIP/src/core/ipv4/etharp.c ****             old_pending = i;
 316:Middlewares/Third_Party/LwIP/src/core/ipv4/etharp.c ****             age_pending = arp_table[i].ctime;
 210              		.loc 1 316 25 view .LVU50
 211 006e 0392     		str	r2, [sp, #12]
 212              	.LVL13:
 315:Middlewares/Third_Party/LwIP/src/core/ipv4/etharp.c ****             old_pending = i;
 213              		.loc 1 315 25 view .LVU51
 214 0070 0293     		str	r3, [sp, #8]
 215              	.LVL14:
 315:Middlewares/Third_Party/LwIP/src/core/ipv4/etharp.c ****             old_pending = i;
 216              		.loc 1 315 25 view .LVU52
 217 0072 00E0     		b	.L8
 218              	.LVL15:
 219              	.L20:
 289:Middlewares/Third_Party/LwIP/src/core/ipv4/etharp.c ****     } else if (state != ETHARP_STATE_EMPTY) {
 220              		.loc 1 289 13 view .LVU53
 221 0074 1D46     		mov	r5, r3
 222              	.LVL16:
 223              	.L8:
 289:Middlewares/Third_Party/LwIP/src/core/ipv4/etharp.c ****     } else if (state != ETHARP_STATE_EMPTY) {
 224              		.loc 1 289 13 view .LVU54
ARM GAS  /var/folders/6z/bj4rvlwn0mvdnknwnn42jd6r0000gn/T//ccvcQ9wF.s 			page 11


 225              	.LBE2:
 283:Middlewares/Third_Party/LwIP/src/core/ipv4/etharp.c ****     u8_t state = arp_table[i].state;
 226              		.loc 1 283 35 is_stmt 1 discriminator 2 view .LVU55
 227 0076 0133     		adds	r3, r3, #1
 228              	.LVL17:
 283:Middlewares/Third_Party/LwIP/src/core/ipv4/etharp.c ****     u8_t state = arp_table[i].state;
 229              		.loc 1 283 35 is_stmt 0 discriminator 2 view .LVU56
 230 0078 1BB2     		sxth	r3, r3
 231              	.LVL18:
 232              	.L7:
 283:Middlewares/Third_Party/LwIP/src/core/ipv4/etharp.c ****     u8_t state = arp_table[i].state;
 233              		.loc 1 283 17 is_stmt 1 discriminator 1 view .LVU57
 234 007a 092B     		cmp	r3, #9
 235 007c 26DC     		bgt	.L32
 236              	.LBB3:
 284:Middlewares/Third_Party/LwIP/src/core/ipv4/etharp.c ****     /* no empty entry found yet and now we do find one? */
 237              		.loc 1 284 5 view .LVU58
 284:Middlewares/Third_Party/LwIP/src/core/ipv4/etharp.c ****     /* no empty entry found yet and now we do find one? */
 238              		.loc 1 284 30 is_stmt 0 view .LVU59
 239 007e 1C46     		mov	r4, r3
 284:Middlewares/Third_Party/LwIP/src/core/ipv4/etharp.c ****     /* no empty entry found yet and now we do find one? */
 240              		.loc 1 284 10 view .LVU60
 241 0080 03EB4300 		add	r0, r3, r3, lsl #1
 242 0084 444A     		ldr	r2, .L38
 243 0086 02EBC002 		add	r2, r2, r0, lsl #3
 244 008a 107D     		ldrb	r0, [r2, #20]	@ zero_extendqisi2
 245              	.LVL19:
 286:Middlewares/Third_Party/LwIP/src/core/ipv4/etharp.c ****       LWIP_DEBUGF(ETHARP_DEBUG, ("etharp_find_entry: found empty entry %d\n", (int)i));
 246              		.loc 1 286 5 is_stmt 1 view .LVU61
 286:Middlewares/Third_Party/LwIP/src/core/ipv4/etharp.c ****       LWIP_DEBUGF(ETHARP_DEBUG, ("etharp_find_entry: found empty entry %d\n", (int)i));
 247              		.loc 1 286 8 is_stmt 0 view .LVU62
 248 008c 0A2D     		cmp	r5, #10
 249 008e 08BF     		it	eq
 250 0090 0028     		cmpeq	r0, #0
 251 0092 EFD0     		beq	.L20
 290:Middlewares/Third_Party/LwIP/src/core/ipv4/etharp.c ****       LWIP_ASSERT("state == ETHARP_STATE_PENDING || state >= ETHARP_STATE_STABLE",
 252              		.loc 1 290 12 is_stmt 1 view .LVU63
 290:Middlewares/Third_Party/LwIP/src/core/ipv4/etharp.c ****       LWIP_ASSERT("state == ETHARP_STATE_PENDING || state >= ETHARP_STATE_STABLE",
 253              		.loc 1 290 15 is_stmt 0 view .LVU64
 254 0094 0028     		cmp	r0, #0
 255 0096 EED0     		beq	.L8
 291:Middlewares/Third_Party/LwIP/src/core/ipv4/etharp.c ****                   state == ETHARP_STATE_PENDING || state >= ETHARP_STATE_STABLE);
 256              		.loc 1 291 7 is_stmt 1 view .LVU65
 291:Middlewares/Third_Party/LwIP/src/core/ipv4/etharp.c ****                   state == ETHARP_STATE_PENDING || state >= ETHARP_STATE_STABLE);
 257              		.loc 1 291 7 view .LVU66
 291:Middlewares/Third_Party/LwIP/src/core/ipv4/etharp.c ****                   state == ETHARP_STATE_PENDING || state >= ETHARP_STATE_STABLE);
 258              		.loc 1 291 7 view .LVU67
 291:Middlewares/Third_Party/LwIP/src/core/ipv4/etharp.c ****                   state == ETHARP_STATE_PENDING || state >= ETHARP_STATE_STABLE);
 259              		.loc 1 291 7 view .LVU68
 294:Middlewares/Third_Party/LwIP/src/core/ipv4/etharp.c **** #if ETHARP_TABLE_MATCH_NETIF
 260              		.loc 1 294 7 view .LVU69
 294:Middlewares/Third_Party/LwIP/src/core/ipv4/etharp.c **** #if ETHARP_TABLE_MATCH_NETIF
 261              		.loc 1 294 10 is_stmt 0 view .LVU70
 262 0098 4EB1     		cbz	r6, .L9
 294:Middlewares/Third_Party/LwIP/src/core/ipv4/etharp.c **** #if ETHARP_TABLE_MATCH_NETIF
 263              		.loc 1 294 21 discriminator 1 view .LVU71
 264 009a 03EB430E 		add	lr, r3, r3, lsl #1
ARM GAS  /var/folders/6z/bj4rvlwn0mvdnknwnn42jd6r0000gn/T//ccvcQ9wF.s 			page 12


 265 009e 3E4A     		ldr	r2, .L38
 266 00a0 02EBCE0C 		add	ip, r2, lr, lsl #3
 267 00a4 DCF80420 		ldr	r2, [ip, #4]
 294:Middlewares/Third_Party/LwIP/src/core/ipv4/etharp.c **** #if ETHARP_TABLE_MATCH_NETIF
 268              		.loc 1 294 18 discriminator 1 view .LVU72
 269 00a8 3168     		ldr	r1, [r6]
 270 00aa 9142     		cmp	r1, r2
 271 00ac BBD0     		beq	.L33
 272              	.L9:
 304:Middlewares/Third_Party/LwIP/src/core/ipv4/etharp.c ****         /* pending with queued packets? */
 273              		.loc 1 304 7 is_stmt 1 view .LVU73
 304:Middlewares/Third_Party/LwIP/src/core/ipv4/etharp.c ****         /* pending with queued packets? */
 274              		.loc 1 304 10 is_stmt 0 view .LVU74
 275 00ae 0128     		cmp	r0, #1
 276 00b0 C4D0     		beq	.L34
 317:Middlewares/Third_Party/LwIP/src/core/ipv4/etharp.c ****           }
 318:Middlewares/Third_Party/LwIP/src/core/ipv4/etharp.c ****         }
 319:Middlewares/Third_Party/LwIP/src/core/ipv4/etharp.c ****         /* stable entry? */
 320:Middlewares/Third_Party/LwIP/src/core/ipv4/etharp.c ****       } else if (state >= ETHARP_STATE_STABLE) {
 277              		.loc 1 320 14 is_stmt 1 view .LVU75
 278              		.loc 1 320 17 is_stmt 0 view .LVU76
 279 00b2 0128     		cmp	r0, #1
 280 00b4 DFD9     		bls	.L8
 321:Middlewares/Third_Party/LwIP/src/core/ipv4/etharp.c **** #if ETHARP_SUPPORT_STATIC_ENTRIES
 322:Middlewares/Third_Party/LwIP/src/core/ipv4/etharp.c ****         /* don't record old_stable for static entries since they never expire */
 323:Middlewares/Third_Party/LwIP/src/core/ipv4/etharp.c ****         if (state < ETHARP_STATE_STATIC)
 324:Middlewares/Third_Party/LwIP/src/core/ipv4/etharp.c **** #endif /* ETHARP_SUPPORT_STATIC_ENTRIES */
 325:Middlewares/Third_Party/LwIP/src/core/ipv4/etharp.c ****         {
 326:Middlewares/Third_Party/LwIP/src/core/ipv4/etharp.c ****           /* remember entry with oldest stable entry in oldest, its age in maxtime */
 327:Middlewares/Third_Party/LwIP/src/core/ipv4/etharp.c ****           if (arp_table[i].ctime >= age_stable) {
 281              		.loc 1 327 11 is_stmt 1 view .LVU77
 282              		.loc 1 327 27 is_stmt 0 view .LVU78
 283 00b6 04EB4404 		add	r4, r4, r4, lsl #1
 284 00ba 374A     		ldr	r2, .L38
 285 00bc 02EBC402 		add	r2, r2, r4, lsl #3
 286 00c0 528A     		ldrh	r2, [r2, #18]
 287              		.loc 1 327 14 view .LVU79
 288 00c2 4A45     		cmp	r2, r9
 289 00c4 D7D3     		bcc	.L8
 328:Middlewares/Third_Party/LwIP/src/core/ipv4/etharp.c ****             old_stable = i;
 329:Middlewares/Third_Party/LwIP/src/core/ipv4/etharp.c ****             age_stable = arp_table[i].ctime;
 290              		.loc 1 329 24 view .LVU80
 291 00c6 9146     		mov	r9, r2
 292              	.LVL20:
 328:Middlewares/Third_Party/LwIP/src/core/ipv4/etharp.c ****             old_stable = i;
 293              		.loc 1 328 24 view .LVU81
 294 00c8 9846     		mov	r8, r3
 295              	.LVL21:
 328:Middlewares/Third_Party/LwIP/src/core/ipv4/etharp.c ****             old_stable = i;
 296              		.loc 1 328 24 view .LVU82
 297 00ca D4E7     		b	.L8
 298              	.LVL22:
 299              	.L32:
 328:Middlewares/Third_Party/LwIP/src/core/ipv4/etharp.c ****             old_stable = i;
 300              		.loc 1 328 24 view .LVU83
 301              	.LBE3:
 330:Middlewares/Third_Party/LwIP/src/core/ipv4/etharp.c ****           }
ARM GAS  /var/folders/6z/bj4rvlwn0mvdnknwnn42jd6r0000gn/T//ccvcQ9wF.s 			page 13


 331:Middlewares/Third_Party/LwIP/src/core/ipv4/etharp.c ****         }
 332:Middlewares/Third_Party/LwIP/src/core/ipv4/etharp.c ****       }
 333:Middlewares/Third_Party/LwIP/src/core/ipv4/etharp.c ****     }
 334:Middlewares/Third_Party/LwIP/src/core/ipv4/etharp.c ****   }
 335:Middlewares/Third_Party/LwIP/src/core/ipv4/etharp.c ****   /* { we have no match } => try to create a new entry */
 336:Middlewares/Third_Party/LwIP/src/core/ipv4/etharp.c **** 
 337:Middlewares/Third_Party/LwIP/src/core/ipv4/etharp.c ****   /* don't create new entry, only search? */
 338:Middlewares/Third_Party/LwIP/src/core/ipv4/etharp.c ****   if (((flags & ETHARP_FLAG_FIND_ONLY) != 0) ||
 302              		.loc 1 338 6 view .LVU84
 303 00cc 0199     		ldr	r1, [sp, #4]
 304              		.loc 1 338 3 is_stmt 1 view .LVU85
 305              		.loc 1 338 6 is_stmt 0 view .LVU86
 306 00ce 11F0020F 		tst	r1, #2
 307 00d2 5AD1     		bne	.L26
 308              		.loc 1 338 46 discriminator 1 view .LVU87
 309 00d4 0A2D     		cmp	r5, #10
 310 00d6 34D0     		beq	.L35
 311              	.L14:
 339:Middlewares/Third_Party/LwIP/src/core/ipv4/etharp.c ****       /* or no empty entry found and not allowed to recycle? */
 340:Middlewares/Third_Party/LwIP/src/core/ipv4/etharp.c ****       ((empty == ARP_TABLE_SIZE) && ((flags & ETHARP_FLAG_TRY_HARD) == 0))) {
 341:Middlewares/Third_Party/LwIP/src/core/ipv4/etharp.c ****     LWIP_DEBUGF(ETHARP_DEBUG | LWIP_DBG_TRACE, ("etharp_find_entry: no empty entry found and not al
 342:Middlewares/Third_Party/LwIP/src/core/ipv4/etharp.c ****     return (s16_t)ERR_MEM;
 343:Middlewares/Third_Party/LwIP/src/core/ipv4/etharp.c ****   }
 344:Middlewares/Third_Party/LwIP/src/core/ipv4/etharp.c **** 
 345:Middlewares/Third_Party/LwIP/src/core/ipv4/etharp.c ****   /* b) choose the least destructive entry to recycle:
 346:Middlewares/Third_Party/LwIP/src/core/ipv4/etharp.c ****    * 1) empty entry
 347:Middlewares/Third_Party/LwIP/src/core/ipv4/etharp.c ****    * 2) oldest stable entry
 348:Middlewares/Third_Party/LwIP/src/core/ipv4/etharp.c ****    * 3) oldest pending entry without queued packets
 349:Middlewares/Third_Party/LwIP/src/core/ipv4/etharp.c ****    * 4) oldest pending entry with queued packets
 350:Middlewares/Third_Party/LwIP/src/core/ipv4/etharp.c ****    *
 351:Middlewares/Third_Party/LwIP/src/core/ipv4/etharp.c ****    * { ETHARP_FLAG_TRY_HARD is set at this point }
 352:Middlewares/Third_Party/LwIP/src/core/ipv4/etharp.c ****    */
 353:Middlewares/Third_Party/LwIP/src/core/ipv4/etharp.c **** 
 354:Middlewares/Third_Party/LwIP/src/core/ipv4/etharp.c ****   /* 1) empty entry available? */
 355:Middlewares/Third_Party/LwIP/src/core/ipv4/etharp.c ****   if (empty < ARP_TABLE_SIZE) {
 312              		.loc 1 355 3 is_stmt 1 view .LVU88
 313              		.loc 1 355 6 is_stmt 0 view .LVU89
 314 00d8 092D     		cmp	r5, #9
 315 00da 16DD     		ble	.L15
 356:Middlewares/Third_Party/LwIP/src/core/ipv4/etharp.c ****     i = empty;
 357:Middlewares/Third_Party/LwIP/src/core/ipv4/etharp.c ****     LWIP_DEBUGF(ETHARP_DEBUG | LWIP_DBG_TRACE, ("etharp_find_entry: selecting empty entry %d\n", (i
 358:Middlewares/Third_Party/LwIP/src/core/ipv4/etharp.c ****   } else {
 359:Middlewares/Third_Party/LwIP/src/core/ipv4/etharp.c ****     /* 2) found recyclable stable entry? */
 360:Middlewares/Third_Party/LwIP/src/core/ipv4/etharp.c ****     if (old_stable < ARP_TABLE_SIZE) {
 316              		.loc 1 360 5 is_stmt 1 view .LVU90
 317              		.loc 1 360 8 is_stmt 0 view .LVU91
 318 00dc B8F1090F 		cmp	r8, #9
 319 00e0 35DC     		bgt	.L16
 361:Middlewares/Third_Party/LwIP/src/core/ipv4/etharp.c ****       /* recycle oldest stable*/
 362:Middlewares/Third_Party/LwIP/src/core/ipv4/etharp.c ****       i = old_stable;
 320              		.loc 1 362 7 is_stmt 1 view .LVU92
 321              	.LVL23:
 363:Middlewares/Third_Party/LwIP/src/core/ipv4/etharp.c ****       LWIP_DEBUGF(ETHARP_DEBUG | LWIP_DBG_TRACE, ("etharp_find_entry: selecting oldest stable entry
 322              		.loc 1 363 116 view .LVU93
 364:Middlewares/Third_Party/LwIP/src/core/ipv4/etharp.c ****       /* no queued packets should exist on stable entries */
 365:Middlewares/Third_Party/LwIP/src/core/ipv4/etharp.c ****       LWIP_ASSERT("arp_table[i].q == NULL", arp_table[i].q == NULL);
 323              		.loc 1 365 7 view .LVU94
ARM GAS  /var/folders/6z/bj4rvlwn0mvdnknwnn42jd6r0000gn/T//ccvcQ9wF.s 			page 14


 324              		.loc 1 365 7 view .LVU95
 325 00e2 08EB4803 		add	r3, r8, r8, lsl #1
 326 00e6 2C4A     		ldr	r2, .L38
 327 00e8 52F83330 		ldr	r3, [r2, r3, lsl #3]
 328 00ec 002B     		cmp	r3, #0
 329 00ee 36D0     		beq	.L28
 330              		.loc 1 365 7 discriminator 1 view .LVU96
 331              		.loc 1 365 7 discriminator 1 view .LVU97
 332 00f0 2A4B     		ldr	r3, .L38+4
 333 00f2 40F26D12 		movw	r2, #365
 334 00f6 2A49     		ldr	r1, .L38+8
 335 00f8 2A48     		ldr	r0, .L38+12
 336 00fa FFF7FEFF 		bl	printf
 337              	.LVL24:
 338 00fe 4546     		mov	r5, r8
 339              	.LVL25:
 340              	.L17:
 366:Middlewares/Third_Party/LwIP/src/core/ipv4/etharp.c ****       /* 3) found recyclable pending entry without queued packets? */
 367:Middlewares/Third_Party/LwIP/src/core/ipv4/etharp.c ****     } else if (old_pending < ARP_TABLE_SIZE) {
 368:Middlewares/Third_Party/LwIP/src/core/ipv4/etharp.c ****       /* recycle oldest pending */
 369:Middlewares/Third_Party/LwIP/src/core/ipv4/etharp.c ****       i = old_pending;
 370:Middlewares/Third_Party/LwIP/src/core/ipv4/etharp.c ****       LWIP_DEBUGF(ETHARP_DEBUG | LWIP_DBG_TRACE, ("etharp_find_entry: selecting oldest pending entr
 371:Middlewares/Third_Party/LwIP/src/core/ipv4/etharp.c ****       /* 4) found recyclable pending entry with queued packets? */
 372:Middlewares/Third_Party/LwIP/src/core/ipv4/etharp.c ****     } else if (old_queue < ARP_TABLE_SIZE) {
 373:Middlewares/Third_Party/LwIP/src/core/ipv4/etharp.c ****       /* recycle oldest pending (queued packets are free in etharp_free_entry) */
 374:Middlewares/Third_Party/LwIP/src/core/ipv4/etharp.c ****       i = old_queue;
 375:Middlewares/Third_Party/LwIP/src/core/ipv4/etharp.c ****       LWIP_DEBUGF(ETHARP_DEBUG | LWIP_DBG_TRACE, ("etharp_find_entry: selecting oldest pending entr
 376:Middlewares/Third_Party/LwIP/src/core/ipv4/etharp.c ****       /* no empty or recyclable entries found */
 377:Middlewares/Third_Party/LwIP/src/core/ipv4/etharp.c ****     } else {
 378:Middlewares/Third_Party/LwIP/src/core/ipv4/etharp.c ****       LWIP_DEBUGF(ETHARP_DEBUG | LWIP_DBG_TRACE, ("etharp_find_entry: no empty or recyclable entrie
 379:Middlewares/Third_Party/LwIP/src/core/ipv4/etharp.c ****       return (s16_t)ERR_MEM;
 380:Middlewares/Third_Party/LwIP/src/core/ipv4/etharp.c ****     }
 381:Middlewares/Third_Party/LwIP/src/core/ipv4/etharp.c **** 
 382:Middlewares/Third_Party/LwIP/src/core/ipv4/etharp.c ****     /* { empty or recyclable entry found } */
 383:Middlewares/Third_Party/LwIP/src/core/ipv4/etharp.c ****     LWIP_ASSERT("i < ARP_TABLE_SIZE", i < ARP_TABLE_SIZE);
 341              		.loc 1 383 5 view .LVU98
 342              		.loc 1 383 5 view .LVU99
 384:Middlewares/Third_Party/LwIP/src/core/ipv4/etharp.c ****     etharp_free_entry(i);
 343              		.loc 1 384 5 view .LVU100
 344 0100 2846     		mov	r0, r5
 345 0102 FFF7FEFF 		bl	etharp_free_entry
 346              	.LVL26:
 385:Middlewares/Third_Party/LwIP/src/core/ipv4/etharp.c ****   }
 386:Middlewares/Third_Party/LwIP/src/core/ipv4/etharp.c **** 
 387:Middlewares/Third_Party/LwIP/src/core/ipv4/etharp.c ****   LWIP_ASSERT("i < ARP_TABLE_SIZE", i < ARP_TABLE_SIZE);
 347              		.loc 1 387 3 view .LVU101
 348              		.loc 1 387 3 view .LVU102
 349 0106 092D     		cmp	r5, #9
 350 0108 2DDC     		bgt	.L36
 351              	.LVL27:
 352              	.L15:
 353              		.loc 1 387 3 view .LVU103
 354              		.loc 1 387 3 view .LVU104
 388:Middlewares/Third_Party/LwIP/src/core/ipv4/etharp.c ****   LWIP_ASSERT("arp_table[i].state == ETHARP_STATE_EMPTY",
 355              		.loc 1 388 3 view .LVU105
 356              		.loc 1 388 3 view .LVU106
 357 010a 2C46     		mov	r4, r5
ARM GAS  /var/folders/6z/bj4rvlwn0mvdnknwnn42jd6r0000gn/T//ccvcQ9wF.s 			page 15


 358 010c 05EB4502 		add	r2, r5, r5, lsl #1
 359 0110 214B     		ldr	r3, .L38
 360 0112 03EBC203 		add	r3, r3, r2, lsl #3
 361 0116 1B7D     		ldrb	r3, [r3, #20]	@ zero_extendqisi2
 362 0118 6BBB     		cbnz	r3, .L37
 363              	.L18:
 364              		.loc 1 388 3 view .LVU107
 365              		.loc 1 388 3 view .LVU108
 389:Middlewares/Third_Party/LwIP/src/core/ipv4/etharp.c ****               arp_table[i].state == ETHARP_STATE_EMPTY);
 390:Middlewares/Third_Party/LwIP/src/core/ipv4/etharp.c **** 
 391:Middlewares/Third_Party/LwIP/src/core/ipv4/etharp.c ****   /* IP address given? */
 392:Middlewares/Third_Party/LwIP/src/core/ipv4/etharp.c ****   if (ipaddr != NULL) {
 366              		.loc 1 392 3 view .LVU109
 367              		.loc 1 392 6 is_stmt 0 view .LVU110
 368 011a 36B1     		cbz	r6, .L19
 393:Middlewares/Third_Party/LwIP/src/core/ipv4/etharp.c ****     /* set IP address */
 394:Middlewares/Third_Party/LwIP/src/core/ipv4/etharp.c ****     ip4_addr_copy(arp_table[i].ipaddr, *ipaddr);
 369              		.loc 1 394 5 is_stmt 1 view .LVU111
 370 011c 3168     		ldr	r1, [r6]
 371 011e 04EB4402 		add	r2, r4, r4, lsl #1
 372 0122 1D4B     		ldr	r3, .L38
 373 0124 03EBC203 		add	r3, r3, r2, lsl #3
 374 0128 5960     		str	r1, [r3, #4]
 375              	.L19:
 395:Middlewares/Third_Party/LwIP/src/core/ipv4/etharp.c ****   }
 396:Middlewares/Third_Party/LwIP/src/core/ipv4/etharp.c ****   arp_table[i].ctime = 0;
 376              		.loc 1 396 3 view .LVU112
 377              		.loc 1 396 22 is_stmt 0 view .LVU113
 378 012a 1B4B     		ldr	r3, .L38
 379 012c 04EB4402 		add	r2, r4, r4, lsl #1
 380 0130 03EBC202 		add	r2, r3, r2, lsl #3
 381 0134 0021     		movs	r1, #0
 382 0136 5182     		strh	r1, [r2, #18]	@ movhi
 397:Middlewares/Third_Party/LwIP/src/core/ipv4/etharp.c **** #if ETHARP_TABLE_MATCH_NETIF
 398:Middlewares/Third_Party/LwIP/src/core/ipv4/etharp.c ****   arp_table[i].netif = netif;
 383              		.loc 1 398 3 is_stmt 1 view .LVU114
 384              		.loc 1 398 22 is_stmt 0 view .LVU115
 385 0138 9760     		str	r7, [r2, #8]
 399:Middlewares/Third_Party/LwIP/src/core/ipv4/etharp.c **** #endif /* ETHARP_TABLE_MATCH_NETIF */
 400:Middlewares/Third_Party/LwIP/src/core/ipv4/etharp.c ****   return (s16_t)i;
 386              		.loc 1 400 3 is_stmt 1 view .LVU116
 387              	.L10:
 401:Middlewares/Third_Party/LwIP/src/core/ipv4/etharp.c **** }
 388              		.loc 1 401 1 is_stmt 0 view .LVU117
 389 013a 2846     		mov	r0, r5
 390 013c 05B0     		add	sp, sp, #20
 391              	.LCFI3:
 392              		.cfi_remember_state
 393              		.cfi_def_cfa_offset 36
 394              		@ sp needed
 395 013e BDE8F08F 		pop	{r4, r5, r6, r7, r8, r9, r10, fp, pc}
 396              	.LVL28:
 397              	.L35:
 398              	.LCFI4:
 399              		.cfi_restore_state
 340:Middlewares/Third_Party/LwIP/src/core/ipv4/etharp.c ****     LWIP_DEBUGF(ETHARP_DEBUG | LWIP_DBG_TRACE, ("etharp_find_entry: no empty entry found and not al
 400              		.loc 1 340 34 view .LVU118
ARM GAS  /var/folders/6z/bj4rvlwn0mvdnknwnn42jd6r0000gn/T//ccvcQ9wF.s 			page 16


 401 0142 11F0010F 		tst	r1, #1
 402 0146 C7D1     		bne	.L14
 342:Middlewares/Third_Party/LwIP/src/core/ipv4/etharp.c ****   }
 403              		.loc 1 342 12 view .LVU119
 404 0148 4FF0FF35 		mov	r5, #-1
 405              	.LVL29:
 342:Middlewares/Third_Party/LwIP/src/core/ipv4/etharp.c ****   }
 406              		.loc 1 342 12 view .LVU120
 407 014c F5E7     		b	.L10
 408              	.LVL30:
 409              	.L16:
 367:Middlewares/Third_Party/LwIP/src/core/ipv4/etharp.c ****       /* recycle oldest pending */
 410              		.loc 1 367 12 is_stmt 1 view .LVU121
 367:Middlewares/Third_Party/LwIP/src/core/ipv4/etharp.c ****       /* recycle oldest pending */
 411              		.loc 1 367 15 is_stmt 0 view .LVU122
 412 014e 029B     		ldr	r3, [sp, #8]
 413              	.LVL31:
 367:Middlewares/Third_Party/LwIP/src/core/ipv4/etharp.c ****       /* recycle oldest pending */
 414              		.loc 1 367 15 view .LVU123
 415 0150 092B     		cmp	r3, #9
 416 0152 06DD     		ble	.L29
 372:Middlewares/Third_Party/LwIP/src/core/ipv4/etharp.c ****       /* recycle oldest pending (queued packets are free in etharp_free_entry) */
 417              		.loc 1 372 12 is_stmt 1 view .LVU124
 372:Middlewares/Third_Party/LwIP/src/core/ipv4/etharp.c ****       /* recycle oldest pending (queued packets are free in etharp_free_entry) */
 418              		.loc 1 372 15 is_stmt 0 view .LVU125
 419 0154 BAF1090F 		cmp	r10, #9
 420 0158 1ADC     		bgt	.L30
 374:Middlewares/Third_Party/LwIP/src/core/ipv4/etharp.c ****       LWIP_DEBUGF(ETHARP_DEBUG | LWIP_DBG_TRACE, ("etharp_find_entry: selecting oldest pending entr
 421              		.loc 1 374 9 view .LVU126
 422 015a 5546     		mov	r5, r10
 423              	.LVL32:
 374:Middlewares/Third_Party/LwIP/src/core/ipv4/etharp.c ****       LWIP_DEBUGF(ETHARP_DEBUG | LWIP_DBG_TRACE, ("etharp_find_entry: selecting oldest pending entr
 424              		.loc 1 374 9 view .LVU127
 425 015c D0E7     		b	.L17
 426              	.LVL33:
 427              	.L28:
 374:Middlewares/Third_Party/LwIP/src/core/ipv4/etharp.c ****       LWIP_DEBUGF(ETHARP_DEBUG | LWIP_DBG_TRACE, ("etharp_find_entry: selecting oldest pending entr
 428              		.loc 1 374 9 view .LVU128
 429 015e 4546     		mov	r5, r8
 430              	.LVL34:
 374:Middlewares/Third_Party/LwIP/src/core/ipv4/etharp.c ****       LWIP_DEBUGF(ETHARP_DEBUG | LWIP_DBG_TRACE, ("etharp_find_entry: selecting oldest pending entr
 431              		.loc 1 374 9 view .LVU129
 432 0160 CEE7     		b	.L17
 433              	.LVL35:
 434              	.L29:
 369:Middlewares/Third_Party/LwIP/src/core/ipv4/etharp.c ****       LWIP_DEBUGF(ETHARP_DEBUG | LWIP_DBG_TRACE, ("etharp_find_entry: selecting oldest pending entr
 435              		.loc 1 369 9 view .LVU130
 436 0162 029D     		ldr	r5, [sp, #8]
 437              	.LVL36:
 369:Middlewares/Third_Party/LwIP/src/core/ipv4/etharp.c ****       LWIP_DEBUGF(ETHARP_DEBUG | LWIP_DBG_TRACE, ("etharp_find_entry: selecting oldest pending entr
 438              		.loc 1 369 9 view .LVU131
 439 0164 CCE7     		b	.L17
 440              	.LVL37:
 441              	.L36:
 387:Middlewares/Third_Party/LwIP/src/core/ipv4/etharp.c ****   LWIP_ASSERT("arp_table[i].state == ETHARP_STATE_EMPTY",
 442              		.loc 1 387 3 is_stmt 1 discriminator 1 view .LVU132
 387:Middlewares/Third_Party/LwIP/src/core/ipv4/etharp.c ****   LWIP_ASSERT("arp_table[i].state == ETHARP_STATE_EMPTY",
ARM GAS  /var/folders/6z/bj4rvlwn0mvdnknwnn42jd6r0000gn/T//ccvcQ9wF.s 			page 17


 443              		.loc 1 387 3 discriminator 1 view .LVU133
 444 0166 0D4B     		ldr	r3, .L38+4
 445 0168 40F28312 		movw	r2, #387
 446 016c 0E49     		ldr	r1, .L38+16
 447 016e 0D48     		ldr	r0, .L38+12
 448 0170 FFF7FEFF 		bl	printf
 449              	.LVL38:
 450 0174 C9E7     		b	.L15
 451              	.LVL39:
 452              	.L37:
 388:Middlewares/Third_Party/LwIP/src/core/ipv4/etharp.c ****               arp_table[i].state == ETHARP_STATE_EMPTY);
 453              		.loc 1 388 3 discriminator 1 view .LVU134
 388:Middlewares/Third_Party/LwIP/src/core/ipv4/etharp.c ****               arp_table[i].state == ETHARP_STATE_EMPTY);
 454              		.loc 1 388 3 discriminator 1 view .LVU135
 455 0176 094B     		ldr	r3, .L38+4
 456 0178 4FF4C272 		mov	r2, #388
 457 017c 0B49     		ldr	r1, .L38+20
 458 017e 0948     		ldr	r0, .L38+12
 459 0180 FFF7FEFF 		bl	printf
 460              	.LVL40:
 461 0184 C9E7     		b	.L18
 462              	.LVL41:
 463              	.L21:
 464              	.LBB4:
 301:Middlewares/Third_Party/LwIP/src/core/ipv4/etharp.c ****       }
 465              		.loc 1 301 16 is_stmt 0 view .LVU136
 466 0186 1D46     		mov	r5, r3
 467              	.LVL42:
 301:Middlewares/Third_Party/LwIP/src/core/ipv4/etharp.c ****       }
 468              		.loc 1 301 16 view .LVU137
 469 0188 D7E7     		b	.L10
 470              	.LVL43:
 471              	.L26:
 301:Middlewares/Third_Party/LwIP/src/core/ipv4/etharp.c ****       }
 472              		.loc 1 301 16 view .LVU138
 473              	.LBE4:
 342:Middlewares/Third_Party/LwIP/src/core/ipv4/etharp.c ****   }
 474              		.loc 1 342 12 view .LVU139
 475 018a 4FF0FF35 		mov	r5, #-1
 476              	.LVL44:
 342:Middlewares/Third_Party/LwIP/src/core/ipv4/etharp.c ****   }
 477              		.loc 1 342 12 view .LVU140
 478 018e D4E7     		b	.L10
 479              	.LVL45:
 480              	.L30:
 379:Middlewares/Third_Party/LwIP/src/core/ipv4/etharp.c ****     }
 481              		.loc 1 379 14 view .LVU141
 482 0190 4FF0FF35 		mov	r5, #-1
 483              	.LVL46:
 379:Middlewares/Third_Party/LwIP/src/core/ipv4/etharp.c ****     }
 484              		.loc 1 379 14 view .LVU142
 485 0194 D1E7     		b	.L10
 486              	.L39:
 487 0196 00BF     		.align	2
 488              	.L38:
 489 0198 00000000 		.word	arp_table
 490 019c 00000000 		.word	.LC0
ARM GAS  /var/folders/6z/bj4rvlwn0mvdnknwnn42jd6r0000gn/T//ccvcQ9wF.s 			page 18


 491 01a0 34000000 		.word	.LC1
 492 01a4 4C000000 		.word	.LC2
 493 01a8 74000000 		.word	.LC3
 494 01ac 88000000 		.word	.LC4
 495              		.cfi_endproc
 496              	.LFE172:
 498              		.section	.rodata.etharp_update_arp_entry.str1.4,"aMS",%progbits,1
 499              		.align	2
 500              	.LC5:
 501 0000 6E657469 		.ascii	"netif->hwaddr_len == ETH_HWADDR_LEN\000"
 501      662D3E68 
 501      77616464 
 501      725F6C65 
 501      6E203D3D 
 502              		.section	.text.etharp_update_arp_entry,"ax",%progbits
 503              		.align	1
 504              		.syntax unified
 505              		.thumb
 506              		.thumb_func
 508              	etharp_update_arp_entry:
 509              	.LVL47:
 510              	.LFB173:
 402:Middlewares/Third_Party/LwIP/src/core/ipv4/etharp.c **** 
 403:Middlewares/Third_Party/LwIP/src/core/ipv4/etharp.c **** /**
 404:Middlewares/Third_Party/LwIP/src/core/ipv4/etharp.c ****  * Update (or insert) a IP/MAC address pair in the ARP cache.
 405:Middlewares/Third_Party/LwIP/src/core/ipv4/etharp.c ****  *
 406:Middlewares/Third_Party/LwIP/src/core/ipv4/etharp.c ****  * If a pending entry is resolved, any queued packets will be sent
 407:Middlewares/Third_Party/LwIP/src/core/ipv4/etharp.c ****  * at this point.
 408:Middlewares/Third_Party/LwIP/src/core/ipv4/etharp.c ****  *
 409:Middlewares/Third_Party/LwIP/src/core/ipv4/etharp.c ****  * @param netif netif related to this entry (used for NETIF_ADDRHINT)
 410:Middlewares/Third_Party/LwIP/src/core/ipv4/etharp.c ****  * @param ipaddr IP address of the inserted ARP entry.
 411:Middlewares/Third_Party/LwIP/src/core/ipv4/etharp.c ****  * @param ethaddr Ethernet address of the inserted ARP entry.
 412:Middlewares/Third_Party/LwIP/src/core/ipv4/etharp.c ****  * @param flags See @ref etharp_state
 413:Middlewares/Third_Party/LwIP/src/core/ipv4/etharp.c ****  *
 414:Middlewares/Third_Party/LwIP/src/core/ipv4/etharp.c ****  * @return
 415:Middlewares/Third_Party/LwIP/src/core/ipv4/etharp.c ****  * - ERR_OK Successfully updated ARP cache.
 416:Middlewares/Third_Party/LwIP/src/core/ipv4/etharp.c ****  * - ERR_MEM If we could not add a new ARP entry when ETHARP_FLAG_TRY_HARD was set.
 417:Middlewares/Third_Party/LwIP/src/core/ipv4/etharp.c ****  * - ERR_ARG Non-unicast address given, those will not appear in ARP cache.
 418:Middlewares/Third_Party/LwIP/src/core/ipv4/etharp.c ****  *
 419:Middlewares/Third_Party/LwIP/src/core/ipv4/etharp.c ****  * @see pbuf_free()
 420:Middlewares/Third_Party/LwIP/src/core/ipv4/etharp.c ****  */
 421:Middlewares/Third_Party/LwIP/src/core/ipv4/etharp.c **** static err_t
 422:Middlewares/Third_Party/LwIP/src/core/ipv4/etharp.c **** etharp_update_arp_entry(struct netif *netif, const ip4_addr_t *ipaddr, struct eth_addr *ethaddr, u8
 423:Middlewares/Third_Party/LwIP/src/core/ipv4/etharp.c **** {
 511              		.loc 1 423 1 is_stmt 1 view -0
 512              		.cfi_startproc
 513              		@ args = 0, pretend = 0, frame = 0
 514              		@ frame_needed = 0, uses_anonymous_args = 0
 515              		.loc 1 423 1 is_stmt 0 view .LVU144
 516 0000 F0B5     		push	{r4, r5, r6, r7, lr}
 517              	.LCFI5:
 518              		.cfi_def_cfa_offset 20
 519              		.cfi_offset 4, -20
 520              		.cfi_offset 5, -16
 521              		.cfi_offset 6, -12
 522              		.cfi_offset 7, -8
 523              		.cfi_offset 14, -4
ARM GAS  /var/folders/6z/bj4rvlwn0mvdnknwnn42jd6r0000gn/T//ccvcQ9wF.s 			page 19


 524 0002 83B0     		sub	sp, sp, #12
 525              	.LCFI6:
 526              		.cfi_def_cfa_offset 32
 527 0004 0546     		mov	r5, r0
 528 0006 0C46     		mov	r4, r1
 529 0008 1646     		mov	r6, r2
 530 000a 1F46     		mov	r7, r3
 424:Middlewares/Third_Party/LwIP/src/core/ipv4/etharp.c ****   s16_t i;
 531              		.loc 1 424 3 is_stmt 1 view .LVU145
 425:Middlewares/Third_Party/LwIP/src/core/ipv4/etharp.c ****   LWIP_ASSERT("netif->hwaddr_len == ETH_HWADDR_LEN", netif->hwaddr_len == ETH_HWADDR_LEN);
 532              		.loc 1 425 3 view .LVU146
 533              		.loc 1 425 3 view .LVU147
 534 000c 90F82C20 		ldrb	r2, [r0, #44]	@ zero_extendqisi2
 535              	.LVL48:
 536              		.loc 1 425 3 is_stmt 0 view .LVU148
 537 0010 062A     		cmp	r2, #6
 538 0012 3DD1     		bne	.L48
 539              	.LVL49:
 540              	.L41:
 541              		.loc 1 425 3 is_stmt 1 view .LVU149
 542              		.loc 1 425 3 view .LVU150
 426:Middlewares/Third_Party/LwIP/src/core/ipv4/etharp.c ****   LWIP_DEBUGF(ETHARP_DEBUG | LWIP_DBG_TRACE, ("etharp_update_arp_entry: %"U16_F".%"U16_F".%"U16_F".
 427:Middlewares/Third_Party/LwIP/src/core/ipv4/etharp.c ****               ip4_addr1_16(ipaddr), ip4_addr2_16(ipaddr), ip4_addr3_16(ipaddr), ip4_addr4_16(ipaddr
 428:Middlewares/Third_Party/LwIP/src/core/ipv4/etharp.c ****               (u16_t)ethaddr->addr[0], (u16_t)ethaddr->addr[1], (u16_t)ethaddr->addr[2],
 429:Middlewares/Third_Party/LwIP/src/core/ipv4/etharp.c ****               (u16_t)ethaddr->addr[3], (u16_t)ethaddr->addr[4], (u16_t)ethaddr->addr[5]));
 543              		.loc 1 429 90 view .LVU151
 430:Middlewares/Third_Party/LwIP/src/core/ipv4/etharp.c ****   /* non-unicast address? */
 431:Middlewares/Third_Party/LwIP/src/core/ipv4/etharp.c ****   if (ip4_addr_isany(ipaddr) ||
 544              		.loc 1 431 3 view .LVU152
 545              		.loc 1 431 6 is_stmt 0 view .LVU153
 546 0014 002C     		cmp	r4, #0
 547 0016 43D0     		beq	.L42
 548              		.loc 1 431 7 discriminator 1 view .LVU154
 549 0018 2068     		ldr	r0, [r4]
 550 001a 0028     		cmp	r0, #0
 551 001c 40D0     		beq	.L42
 432:Middlewares/Third_Party/LwIP/src/core/ipv4/etharp.c ****       ip4_addr_isbroadcast(ipaddr, netif) ||
 552              		.loc 1 432 7 view .LVU155
 553 001e 2946     		mov	r1, r5
 554 0020 FFF7FEFF 		bl	ip4_addr_isbroadcast_u32
 555              	.LVL50:
 431:Middlewares/Third_Party/LwIP/src/core/ipv4/etharp.c ****       ip4_addr_isbroadcast(ipaddr, netif) ||
 556              		.loc 1 431 30 discriminator 2 view .LVU156
 557 0024 0028     		cmp	r0, #0
 558 0026 3BD1     		bne	.L42
 433:Middlewares/Third_Party/LwIP/src/core/ipv4/etharp.c ****       ip4_addr_ismulticast(ipaddr)) {
 559              		.loc 1 433 7 view .LVU157
 560 0028 2268     		ldr	r2, [r4]
 561 002a 02F0F002 		and	r2, r2, #240
 432:Middlewares/Third_Party/LwIP/src/core/ipv4/etharp.c ****       ip4_addr_isbroadcast(ipaddr, netif) ||
 562              		.loc 1 432 43 view .LVU158
 563 002e E02A     		cmp	r2, #224
 564 0030 36D0     		beq	.L42
 434:Middlewares/Third_Party/LwIP/src/core/ipv4/etharp.c ****     LWIP_DEBUGF(ETHARP_DEBUG | LWIP_DBG_TRACE, ("etharp_update_arp_entry: will not add non-unicast 
 435:Middlewares/Third_Party/LwIP/src/core/ipv4/etharp.c ****     return ERR_ARG;
 436:Middlewares/Third_Party/LwIP/src/core/ipv4/etharp.c ****   }
 437:Middlewares/Third_Party/LwIP/src/core/ipv4/etharp.c ****   /* find or create ARP entry */
ARM GAS  /var/folders/6z/bj4rvlwn0mvdnknwnn42jd6r0000gn/T//ccvcQ9wF.s 			page 20


 438:Middlewares/Third_Party/LwIP/src/core/ipv4/etharp.c ****   i = etharp_find_entry(ipaddr, flags, netif);
 565              		.loc 1 438 3 is_stmt 1 view .LVU159
 566              		.loc 1 438 7 is_stmt 0 view .LVU160
 567 0032 2A46     		mov	r2, r5
 568 0034 3946     		mov	r1, r7
 569 0036 2046     		mov	r0, r4
 570 0038 FFF7FEFF 		bl	etharp_find_entry
 571              	.LVL51:
 439:Middlewares/Third_Party/LwIP/src/core/ipv4/etharp.c ****   /* bail out if no entry could be found */
 440:Middlewares/Third_Party/LwIP/src/core/ipv4/etharp.c ****   if (i < 0) {
 572              		.loc 1 440 3 is_stmt 1 view .LVU161
 573              		.loc 1 440 6 is_stmt 0 view .LVU162
 574 003c B0F1000C 		subs	ip, r0, #0
 575 0040 31DB     		blt	.L49
 441:Middlewares/Third_Party/LwIP/src/core/ipv4/etharp.c ****     return (err_t)i;
 442:Middlewares/Third_Party/LwIP/src/core/ipv4/etharp.c ****   }
 443:Middlewares/Third_Party/LwIP/src/core/ipv4/etharp.c **** 
 444:Middlewares/Third_Party/LwIP/src/core/ipv4/etharp.c **** #if ETHARP_SUPPORT_STATIC_ENTRIES
 445:Middlewares/Third_Party/LwIP/src/core/ipv4/etharp.c ****   if (flags & ETHARP_FLAG_STATIC_ENTRY) {
 446:Middlewares/Third_Party/LwIP/src/core/ipv4/etharp.c ****     /* record static type */
 447:Middlewares/Third_Party/LwIP/src/core/ipv4/etharp.c ****     arp_table[i].state = ETHARP_STATE_STATIC;
 448:Middlewares/Third_Party/LwIP/src/core/ipv4/etharp.c ****   } else if (arp_table[i].state == ETHARP_STATE_STATIC) {
 449:Middlewares/Third_Party/LwIP/src/core/ipv4/etharp.c ****     /* found entry is a static type, don't overwrite it */
 450:Middlewares/Third_Party/LwIP/src/core/ipv4/etharp.c ****     return ERR_VAL;
 451:Middlewares/Third_Party/LwIP/src/core/ipv4/etharp.c ****   } else
 452:Middlewares/Third_Party/LwIP/src/core/ipv4/etharp.c **** #endif /* ETHARP_SUPPORT_STATIC_ENTRIES */
 453:Middlewares/Third_Party/LwIP/src/core/ipv4/etharp.c ****   {
 454:Middlewares/Third_Party/LwIP/src/core/ipv4/etharp.c ****     /* mark it stable */
 455:Middlewares/Third_Party/LwIP/src/core/ipv4/etharp.c ****     arp_table[i].state = ETHARP_STATE_STABLE;
 576              		.loc 1 455 5 is_stmt 1 view .LVU163
 577              		.loc 1 455 24 is_stmt 0 view .LVU164
 578 0042 1C4B     		ldr	r3, .L50
 579 0044 0CEB4C00 		add	r0, ip, ip, lsl #1
 580              	.LVL52:
 581              		.loc 1 455 24 view .LVU165
 582 0048 03EBC002 		add	r2, r3, r0, lsl #3
 583 004c 0221     		movs	r1, #2
 584 004e 1175     		strb	r1, [r2, #20]
 456:Middlewares/Third_Party/LwIP/src/core/ipv4/etharp.c ****   }
 457:Middlewares/Third_Party/LwIP/src/core/ipv4/etharp.c **** 
 458:Middlewares/Third_Party/LwIP/src/core/ipv4/etharp.c ****   /* record network interface */
 459:Middlewares/Third_Party/LwIP/src/core/ipv4/etharp.c ****   arp_table[i].netif = netif;
 585              		.loc 1 459 3 is_stmt 1 view .LVU166
 586              		.loc 1 459 22 is_stmt 0 view .LVU167
 587 0050 9560     		str	r5, [r2, #8]
 460:Middlewares/Third_Party/LwIP/src/core/ipv4/etharp.c ****   /* insert in SNMP ARP index tree */
 461:Middlewares/Third_Party/LwIP/src/core/ipv4/etharp.c ****   mib2_add_arp_entry(netif, &arp_table[i].ipaddr);
 588              		.loc 1 461 50 is_stmt 1 view .LVU168
 462:Middlewares/Third_Party/LwIP/src/core/ipv4/etharp.c **** 
 463:Middlewares/Third_Party/LwIP/src/core/ipv4/etharp.c ****   LWIP_DEBUGF(ETHARP_DEBUG | LWIP_DBG_TRACE, ("etharp_update_arp_entry: updating stable entry %"S16
 589              		.loc 1 463 111 view .LVU169
 464:Middlewares/Third_Party/LwIP/src/core/ipv4/etharp.c ****   /* update address */
 465:Middlewares/Third_Party/LwIP/src/core/ipv4/etharp.c ****   SMEMCPY(&arp_table[i].ethaddr, ethaddr, ETH_HWADDR_LEN);
 590              		.loc 1 465 3 view .LVU170
 591 0052 C100     		lsls	r1, r0, #3
 592 0054 0831     		adds	r1, r1, #8
 593 0056 1944     		add	r1, r1, r3
ARM GAS  /var/folders/6z/bj4rvlwn0mvdnknwnn42jd6r0000gn/T//ccvcQ9wF.s 			page 21


 594 0058 3468     		ldr	r4, [r6]	@ unaligned
 595              	.LVL53:
 596              		.loc 1 465 3 is_stmt 0 view .LVU171
 597 005a 4C60     		str	r4, [r1, #4]	@ unaligned
 598 005c B488     		ldrh	r4, [r6, #4]	@ unaligned
 599 005e 0C81     		strh	r4, [r1, #8]	@ unaligned
 466:Middlewares/Third_Party/LwIP/src/core/ipv4/etharp.c ****   /* reset time stamp */
 467:Middlewares/Third_Party/LwIP/src/core/ipv4/etharp.c ****   arp_table[i].ctime = 0;
 600              		.loc 1 467 3 is_stmt 1 view .LVU172
 601              		.loc 1 467 22 is_stmt 0 view .LVU173
 602 0060 0021     		movs	r1, #0
 603 0062 5182     		strh	r1, [r2, #18]	@ movhi
 468:Middlewares/Third_Party/LwIP/src/core/ipv4/etharp.c ****   /* this is where we will send out queued packets! */
 469:Middlewares/Third_Party/LwIP/src/core/ipv4/etharp.c **** #if ARP_QUEUEING
 470:Middlewares/Third_Party/LwIP/src/core/ipv4/etharp.c ****   while (arp_table[i].q != NULL) {
 471:Middlewares/Third_Party/LwIP/src/core/ipv4/etharp.c ****     struct pbuf *p;
 472:Middlewares/Third_Party/LwIP/src/core/ipv4/etharp.c ****     /* remember remainder of queue */
 473:Middlewares/Third_Party/LwIP/src/core/ipv4/etharp.c ****     struct etharp_q_entry *q = arp_table[i].q;
 474:Middlewares/Third_Party/LwIP/src/core/ipv4/etharp.c ****     /* pop first item off the queue */
 475:Middlewares/Third_Party/LwIP/src/core/ipv4/etharp.c ****     arp_table[i].q = q->next;
 476:Middlewares/Third_Party/LwIP/src/core/ipv4/etharp.c ****     /* get the packet pointer */
 477:Middlewares/Third_Party/LwIP/src/core/ipv4/etharp.c ****     p = q->p;
 478:Middlewares/Third_Party/LwIP/src/core/ipv4/etharp.c ****     /* now queue entry can be freed */
 479:Middlewares/Third_Party/LwIP/src/core/ipv4/etharp.c ****     memp_free(MEMP_ARP_QUEUE, q);
 480:Middlewares/Third_Party/LwIP/src/core/ipv4/etharp.c **** #else /* ARP_QUEUEING */
 481:Middlewares/Third_Party/LwIP/src/core/ipv4/etharp.c ****   if (arp_table[i].q != NULL) {
 604              		.loc 1 481 3 is_stmt 1 view .LVU174
 605              		.loc 1 481 19 is_stmt 0 view .LVU175
 606 0064 53F83070 		ldr	r7, [r3, r0, lsl #3]
 607              	.LVL54:
 608              		.loc 1 481 6 view .LVU176
 609 0068 0FB3     		cbz	r7, .L46
 610              	.LBB5:
 482:Middlewares/Third_Party/LwIP/src/core/ipv4/etharp.c ****     struct pbuf *p = arp_table[i].q;
 611              		.loc 1 482 5 is_stmt 1 view .LVU177
 612              	.LVL55:
 483:Middlewares/Third_Party/LwIP/src/core/ipv4/etharp.c ****     arp_table[i].q = NULL;
 613              		.loc 1 483 5 view .LVU178
 614              		.loc 1 483 20 is_stmt 0 view .LVU179
 615 006a C300     		lsls	r3, r0, #3
 616 006c 0C46     		mov	r4, r1
 617 006e 114A     		ldr	r2, .L50
 618 0070 D150     		str	r1, [r2, r3]
 484:Middlewares/Third_Party/LwIP/src/core/ipv4/etharp.c **** #endif /* ARP_QUEUEING */
 485:Middlewares/Third_Party/LwIP/src/core/ipv4/etharp.c ****     /* send the queued IP packet */
 486:Middlewares/Third_Party/LwIP/src/core/ipv4/etharp.c ****     ethernet_output(netif, p, (struct eth_addr *)(netif->hwaddr), ethaddr, ETHTYPE_IP);
 619              		.loc 1 486 5 is_stmt 1 view .LVU180
 620 0072 4FF40063 		mov	r3, #2048
 621 0076 0093     		str	r3, [sp]
 622 0078 3346     		mov	r3, r6
 623 007a 05F12602 		add	r2, r5, #38
 624 007e 3946     		mov	r1, r7
 625 0080 2846     		mov	r0, r5
 626 0082 FFF7FEFF 		bl	ethernet_output
 627              	.LVL56:
 487:Middlewares/Third_Party/LwIP/src/core/ipv4/etharp.c ****     /* free the queued IP packet */
 488:Middlewares/Third_Party/LwIP/src/core/ipv4/etharp.c ****     pbuf_free(p);
ARM GAS  /var/folders/6z/bj4rvlwn0mvdnknwnn42jd6r0000gn/T//ccvcQ9wF.s 			page 22


 628              		.loc 1 488 5 view .LVU181
 629 0086 3846     		mov	r0, r7
 630 0088 FFF7FEFF 		bl	pbuf_free
 631              	.LVL57:
 632              	.LBE5:
 489:Middlewares/Third_Party/LwIP/src/core/ipv4/etharp.c ****   }
 490:Middlewares/Third_Party/LwIP/src/core/ipv4/etharp.c ****   return ERR_OK;
 633              		.loc 1 490 10 is_stmt 0 view .LVU182
 634 008c 2046     		mov	r0, r4
 635 008e 0CE0     		b	.L44
 636              	.LVL58:
 637              	.L48:
 425:Middlewares/Third_Party/LwIP/src/core/ipv4/etharp.c ****   LWIP_DEBUGF(ETHARP_DEBUG | LWIP_DBG_TRACE, ("etharp_update_arp_entry: %"U16_F".%"U16_F".%"U16_F".
 638              		.loc 1 425 3 is_stmt 1 discriminator 1 view .LVU183
 425:Middlewares/Third_Party/LwIP/src/core/ipv4/etharp.c ****   LWIP_DEBUGF(ETHARP_DEBUG | LWIP_DBG_TRACE, ("etharp_update_arp_entry: %"U16_F".%"U16_F".%"U16_F".
 639              		.loc 1 425 3 discriminator 1 view .LVU184
 640 0090 094B     		ldr	r3, .L50+4
 641              	.LVL59:
 425:Middlewares/Third_Party/LwIP/src/core/ipv4/etharp.c ****   LWIP_DEBUGF(ETHARP_DEBUG | LWIP_DBG_TRACE, ("etharp_update_arp_entry: %"U16_F".%"U16_F".%"U16_F".
 642              		.loc 1 425 3 is_stmt 0 discriminator 1 view .LVU185
 643 0092 40F2A912 		movw	r2, #425
 644 0096 0949     		ldr	r1, .L50+8
 645              	.LVL60:
 425:Middlewares/Third_Party/LwIP/src/core/ipv4/etharp.c ****   LWIP_DEBUGF(ETHARP_DEBUG | LWIP_DBG_TRACE, ("etharp_update_arp_entry: %"U16_F".%"U16_F".%"U16_F".
 646              		.loc 1 425 3 discriminator 1 view .LVU186
 647 0098 0948     		ldr	r0, .L50+12
 648              	.LVL61:
 425:Middlewares/Third_Party/LwIP/src/core/ipv4/etharp.c ****   LWIP_DEBUGF(ETHARP_DEBUG | LWIP_DBG_TRACE, ("etharp_update_arp_entry: %"U16_F".%"U16_F".%"U16_F".
 649              		.loc 1 425 3 discriminator 1 view .LVU187
 650 009a FFF7FEFF 		bl	printf
 651              	.LVL62:
 652 009e B9E7     		b	.L41
 653              	.L42:
 434:Middlewares/Third_Party/LwIP/src/core/ipv4/etharp.c ****     return ERR_ARG;
 654              		.loc 1 434 128 is_stmt 1 view .LVU188
 435:Middlewares/Third_Party/LwIP/src/core/ipv4/etharp.c ****   }
 655              		.loc 1 435 5 view .LVU189
 435:Middlewares/Third_Party/LwIP/src/core/ipv4/etharp.c ****   }
 656              		.loc 1 435 12 is_stmt 0 view .LVU190
 657 00a0 6FF00F00 		mvn	r0, #15
 658 00a4 01E0     		b	.L44
 659              	.LVL63:
 660              	.L49:
 441:Middlewares/Third_Party/LwIP/src/core/ipv4/etharp.c ****   }
 661              		.loc 1 441 5 is_stmt 1 view .LVU191
 441:Middlewares/Third_Party/LwIP/src/core/ipv4/etharp.c ****   }
 662              		.loc 1 441 12 is_stmt 0 view .LVU192
 663 00a6 4FFA8CF0 		sxtb	r0, ip
 664              	.LVL64:
 665              	.L44:
 491:Middlewares/Third_Party/LwIP/src/core/ipv4/etharp.c **** }
 666              		.loc 1 491 1 view .LVU193
 667 00aa 03B0     		add	sp, sp, #12
 668              	.LCFI7:
 669              		.cfi_remember_state
 670              		.cfi_def_cfa_offset 20
 671              		@ sp needed
ARM GAS  /var/folders/6z/bj4rvlwn0mvdnknwnn42jd6r0000gn/T//ccvcQ9wF.s 			page 23


 672 00ac F0BD     		pop	{r4, r5, r6, r7, pc}
 673              	.LVL65:
 674              	.L46:
 675              	.LCFI8:
 676              		.cfi_restore_state
 490:Middlewares/Third_Party/LwIP/src/core/ipv4/etharp.c **** }
 677              		.loc 1 490 10 view .LVU194
 678 00ae 0020     		movs	r0, #0
 679 00b0 FBE7     		b	.L44
 680              	.L51:
 681 00b2 00BF     		.align	2
 682              	.L50:
 683 00b4 00000000 		.word	arp_table
 684 00b8 00000000 		.word	.LC0
 685 00bc 00000000 		.word	.LC5
 686 00c0 4C000000 		.word	.LC2
 687              		.cfi_endproc
 688              	.LFE173:
 690              		.section	.rodata.etharp_raw.str1.4,"aMS",%progbits,1
 691              		.align	2
 692              	.LC6:
 693 0000 6E657469 		.ascii	"netif != NULL\000"
 693      6620213D 
 693      204E554C 
 693      4C00
 694 000e 0000     		.align	2
 695              	.LC7:
 696 0010 63686563 		.ascii	"check that first pbuf can hold struct etharp_hdr\000"
 696      6B207468 
 696      61742066 
 696      69727374 
 696      20706275 
 697 0041 000000   		.align	2
 698              	.LC8:
 699 0044 6E657469 		.ascii	"netif->hwaddr_len must be the same as ETH_HWADDR_LE"
 699      662D3E68 
 699      77616464 
 699      725F6C65 
 699      6E206D75 
 700 0077 4E20666F 		.ascii	"N for etharp!\000"
 700      72206574 
 700      68617270 
 700      2100
 701              		.section	.text.etharp_raw,"ax",%progbits
 702              		.align	1
 703              		.syntax unified
 704              		.thumb
 705              		.thumb_func
 707              	etharp_raw:
 708              	.LVL66:
 709              	.LFB181:
 492:Middlewares/Third_Party/LwIP/src/core/ipv4/etharp.c **** 
 493:Middlewares/Third_Party/LwIP/src/core/ipv4/etharp.c **** #if ETHARP_SUPPORT_STATIC_ENTRIES
 494:Middlewares/Third_Party/LwIP/src/core/ipv4/etharp.c **** /** Add a new static entry to the ARP table. If an entry exists for the
 495:Middlewares/Third_Party/LwIP/src/core/ipv4/etharp.c ****  * specified IP address, this entry is overwritten.
 496:Middlewares/Third_Party/LwIP/src/core/ipv4/etharp.c ****  * If packets are queued for the specified IP address, they are sent out.
 497:Middlewares/Third_Party/LwIP/src/core/ipv4/etharp.c ****  *
ARM GAS  /var/folders/6z/bj4rvlwn0mvdnknwnn42jd6r0000gn/T//ccvcQ9wF.s 			page 24


 498:Middlewares/Third_Party/LwIP/src/core/ipv4/etharp.c ****  * @param ipaddr IP address for the new static entry
 499:Middlewares/Third_Party/LwIP/src/core/ipv4/etharp.c ****  * @param ethaddr ethernet address for the new static entry
 500:Middlewares/Third_Party/LwIP/src/core/ipv4/etharp.c ****  * @return See return values of etharp_add_static_entry
 501:Middlewares/Third_Party/LwIP/src/core/ipv4/etharp.c ****  */
 502:Middlewares/Third_Party/LwIP/src/core/ipv4/etharp.c **** err_t
 503:Middlewares/Third_Party/LwIP/src/core/ipv4/etharp.c **** etharp_add_static_entry(const ip4_addr_t *ipaddr, struct eth_addr *ethaddr)
 504:Middlewares/Third_Party/LwIP/src/core/ipv4/etharp.c **** {
 505:Middlewares/Third_Party/LwIP/src/core/ipv4/etharp.c ****   struct netif *netif;
 506:Middlewares/Third_Party/LwIP/src/core/ipv4/etharp.c ****   LWIP_ASSERT_CORE_LOCKED();
 507:Middlewares/Third_Party/LwIP/src/core/ipv4/etharp.c ****   LWIP_DEBUGF(ETHARP_DEBUG | LWIP_DBG_TRACE, ("etharp_add_static_entry: %"U16_F".%"U16_F".%"U16_F".
 508:Middlewares/Third_Party/LwIP/src/core/ipv4/etharp.c ****               ip4_addr1_16(ipaddr), ip4_addr2_16(ipaddr), ip4_addr3_16(ipaddr), ip4_addr4_16(ipaddr
 509:Middlewares/Third_Party/LwIP/src/core/ipv4/etharp.c ****               (u16_t)ethaddr->addr[0], (u16_t)ethaddr->addr[1], (u16_t)ethaddr->addr[2],
 510:Middlewares/Third_Party/LwIP/src/core/ipv4/etharp.c ****               (u16_t)ethaddr->addr[3], (u16_t)ethaddr->addr[4], (u16_t)ethaddr->addr[5]));
 511:Middlewares/Third_Party/LwIP/src/core/ipv4/etharp.c **** 
 512:Middlewares/Third_Party/LwIP/src/core/ipv4/etharp.c ****   netif = ip4_route(ipaddr);
 513:Middlewares/Third_Party/LwIP/src/core/ipv4/etharp.c ****   if (netif == NULL) {
 514:Middlewares/Third_Party/LwIP/src/core/ipv4/etharp.c ****     return ERR_RTE;
 515:Middlewares/Third_Party/LwIP/src/core/ipv4/etharp.c ****   }
 516:Middlewares/Third_Party/LwIP/src/core/ipv4/etharp.c **** 
 517:Middlewares/Third_Party/LwIP/src/core/ipv4/etharp.c ****   return etharp_update_arp_entry(netif, ipaddr, ethaddr, ETHARP_FLAG_TRY_HARD | ETHARP_FLAG_STATIC_
 518:Middlewares/Third_Party/LwIP/src/core/ipv4/etharp.c **** }
 519:Middlewares/Third_Party/LwIP/src/core/ipv4/etharp.c **** 
 520:Middlewares/Third_Party/LwIP/src/core/ipv4/etharp.c **** /** Remove a static entry from the ARP table previously added with a call to
 521:Middlewares/Third_Party/LwIP/src/core/ipv4/etharp.c ****  * etharp_add_static_entry.
 522:Middlewares/Third_Party/LwIP/src/core/ipv4/etharp.c ****  *
 523:Middlewares/Third_Party/LwIP/src/core/ipv4/etharp.c ****  * @param ipaddr IP address of the static entry to remove
 524:Middlewares/Third_Party/LwIP/src/core/ipv4/etharp.c ****  * @return ERR_OK: entry removed
 525:Middlewares/Third_Party/LwIP/src/core/ipv4/etharp.c ****  *         ERR_MEM: entry wasn't found
 526:Middlewares/Third_Party/LwIP/src/core/ipv4/etharp.c ****  *         ERR_ARG: entry wasn't a static entry but a dynamic one
 527:Middlewares/Third_Party/LwIP/src/core/ipv4/etharp.c ****  */
 528:Middlewares/Third_Party/LwIP/src/core/ipv4/etharp.c **** err_t
 529:Middlewares/Third_Party/LwIP/src/core/ipv4/etharp.c **** etharp_remove_static_entry(const ip4_addr_t *ipaddr)
 530:Middlewares/Third_Party/LwIP/src/core/ipv4/etharp.c **** {
 531:Middlewares/Third_Party/LwIP/src/core/ipv4/etharp.c ****   s16_t i;
 532:Middlewares/Third_Party/LwIP/src/core/ipv4/etharp.c ****   LWIP_ASSERT_CORE_LOCKED();
 533:Middlewares/Third_Party/LwIP/src/core/ipv4/etharp.c ****   LWIP_DEBUGF(ETHARP_DEBUG | LWIP_DBG_TRACE, ("etharp_remove_static_entry: %"U16_F".%"U16_F".%"U16_
 534:Middlewares/Third_Party/LwIP/src/core/ipv4/etharp.c ****               ip4_addr1_16(ipaddr), ip4_addr2_16(ipaddr), ip4_addr3_16(ipaddr), ip4_addr4_16(ipaddr
 535:Middlewares/Third_Party/LwIP/src/core/ipv4/etharp.c **** 
 536:Middlewares/Third_Party/LwIP/src/core/ipv4/etharp.c ****   /* find or create ARP entry */
 537:Middlewares/Third_Party/LwIP/src/core/ipv4/etharp.c ****   i = etharp_find_entry(ipaddr, ETHARP_FLAG_FIND_ONLY, NULL);
 538:Middlewares/Third_Party/LwIP/src/core/ipv4/etharp.c ****   /* bail out if no entry could be found */
 539:Middlewares/Third_Party/LwIP/src/core/ipv4/etharp.c ****   if (i < 0) {
 540:Middlewares/Third_Party/LwIP/src/core/ipv4/etharp.c ****     return (err_t)i;
 541:Middlewares/Third_Party/LwIP/src/core/ipv4/etharp.c ****   }
 542:Middlewares/Third_Party/LwIP/src/core/ipv4/etharp.c **** 
 543:Middlewares/Third_Party/LwIP/src/core/ipv4/etharp.c ****   if (arp_table[i].state != ETHARP_STATE_STATIC) {
 544:Middlewares/Third_Party/LwIP/src/core/ipv4/etharp.c ****     /* entry wasn't a static entry, cannot remove it */
 545:Middlewares/Third_Party/LwIP/src/core/ipv4/etharp.c ****     return ERR_ARG;
 546:Middlewares/Third_Party/LwIP/src/core/ipv4/etharp.c ****   }
 547:Middlewares/Third_Party/LwIP/src/core/ipv4/etharp.c ****   /* entry found, free it */
 548:Middlewares/Third_Party/LwIP/src/core/ipv4/etharp.c ****   etharp_free_entry(i);
 549:Middlewares/Third_Party/LwIP/src/core/ipv4/etharp.c ****   return ERR_OK;
 550:Middlewares/Third_Party/LwIP/src/core/ipv4/etharp.c **** }
 551:Middlewares/Third_Party/LwIP/src/core/ipv4/etharp.c **** #endif /* ETHARP_SUPPORT_STATIC_ENTRIES */
 552:Middlewares/Third_Party/LwIP/src/core/ipv4/etharp.c **** 
 553:Middlewares/Third_Party/LwIP/src/core/ipv4/etharp.c **** /**
 554:Middlewares/Third_Party/LwIP/src/core/ipv4/etharp.c ****  * Remove all ARP table entries of the specified netif.
ARM GAS  /var/folders/6z/bj4rvlwn0mvdnknwnn42jd6r0000gn/T//ccvcQ9wF.s 			page 25


 555:Middlewares/Third_Party/LwIP/src/core/ipv4/etharp.c ****  *
 556:Middlewares/Third_Party/LwIP/src/core/ipv4/etharp.c ****  * @param netif points to a network interface
 557:Middlewares/Third_Party/LwIP/src/core/ipv4/etharp.c ****  */
 558:Middlewares/Third_Party/LwIP/src/core/ipv4/etharp.c **** void
 559:Middlewares/Third_Party/LwIP/src/core/ipv4/etharp.c **** etharp_cleanup_netif(struct netif *netif)
 560:Middlewares/Third_Party/LwIP/src/core/ipv4/etharp.c **** {
 561:Middlewares/Third_Party/LwIP/src/core/ipv4/etharp.c ****   int i;
 562:Middlewares/Third_Party/LwIP/src/core/ipv4/etharp.c **** 
 563:Middlewares/Third_Party/LwIP/src/core/ipv4/etharp.c ****   for (i = 0; i < ARP_TABLE_SIZE; ++i) {
 564:Middlewares/Third_Party/LwIP/src/core/ipv4/etharp.c ****     u8_t state = arp_table[i].state;
 565:Middlewares/Third_Party/LwIP/src/core/ipv4/etharp.c ****     if ((state != ETHARP_STATE_EMPTY) && (arp_table[i].netif == netif)) {
 566:Middlewares/Third_Party/LwIP/src/core/ipv4/etharp.c ****       etharp_free_entry(i);
 567:Middlewares/Third_Party/LwIP/src/core/ipv4/etharp.c ****     }
 568:Middlewares/Third_Party/LwIP/src/core/ipv4/etharp.c ****   }
 569:Middlewares/Third_Party/LwIP/src/core/ipv4/etharp.c **** }
 570:Middlewares/Third_Party/LwIP/src/core/ipv4/etharp.c **** 
 571:Middlewares/Third_Party/LwIP/src/core/ipv4/etharp.c **** /**
 572:Middlewares/Third_Party/LwIP/src/core/ipv4/etharp.c ****  * Finds (stable) ethernet/IP address pair from ARP table
 573:Middlewares/Third_Party/LwIP/src/core/ipv4/etharp.c ****  * using interface and IP address index.
 574:Middlewares/Third_Party/LwIP/src/core/ipv4/etharp.c ****  * @note the addresses in the ARP table are in network order!
 575:Middlewares/Third_Party/LwIP/src/core/ipv4/etharp.c ****  *
 576:Middlewares/Third_Party/LwIP/src/core/ipv4/etharp.c ****  * @param netif points to interface index
 577:Middlewares/Third_Party/LwIP/src/core/ipv4/etharp.c ****  * @param ipaddr points to the (network order) IP address index
 578:Middlewares/Third_Party/LwIP/src/core/ipv4/etharp.c ****  * @param eth_ret points to return pointer
 579:Middlewares/Third_Party/LwIP/src/core/ipv4/etharp.c ****  * @param ip_ret points to return pointer
 580:Middlewares/Third_Party/LwIP/src/core/ipv4/etharp.c ****  * @return table index if found, -1 otherwise
 581:Middlewares/Third_Party/LwIP/src/core/ipv4/etharp.c ****  */
 582:Middlewares/Third_Party/LwIP/src/core/ipv4/etharp.c **** ssize_t
 583:Middlewares/Third_Party/LwIP/src/core/ipv4/etharp.c **** etharp_find_addr(struct netif *netif, const ip4_addr_t *ipaddr,
 584:Middlewares/Third_Party/LwIP/src/core/ipv4/etharp.c ****                  struct eth_addr **eth_ret, const ip4_addr_t **ip_ret)
 585:Middlewares/Third_Party/LwIP/src/core/ipv4/etharp.c **** {
 586:Middlewares/Third_Party/LwIP/src/core/ipv4/etharp.c ****   s16_t i;
 587:Middlewares/Third_Party/LwIP/src/core/ipv4/etharp.c **** 
 588:Middlewares/Third_Party/LwIP/src/core/ipv4/etharp.c ****   LWIP_ASSERT("eth_ret != NULL && ip_ret != NULL",
 589:Middlewares/Third_Party/LwIP/src/core/ipv4/etharp.c ****               eth_ret != NULL && ip_ret != NULL);
 590:Middlewares/Third_Party/LwIP/src/core/ipv4/etharp.c **** 
 591:Middlewares/Third_Party/LwIP/src/core/ipv4/etharp.c ****   LWIP_UNUSED_ARG(netif);
 592:Middlewares/Third_Party/LwIP/src/core/ipv4/etharp.c **** 
 593:Middlewares/Third_Party/LwIP/src/core/ipv4/etharp.c ****   i = etharp_find_entry(ipaddr, ETHARP_FLAG_FIND_ONLY, netif);
 594:Middlewares/Third_Party/LwIP/src/core/ipv4/etharp.c ****   if ((i >= 0) && (arp_table[i].state >= ETHARP_STATE_STABLE)) {
 595:Middlewares/Third_Party/LwIP/src/core/ipv4/etharp.c ****     *eth_ret = &arp_table[i].ethaddr;
 596:Middlewares/Third_Party/LwIP/src/core/ipv4/etharp.c ****     *ip_ret = &arp_table[i].ipaddr;
 597:Middlewares/Third_Party/LwIP/src/core/ipv4/etharp.c ****     return i;
 598:Middlewares/Third_Party/LwIP/src/core/ipv4/etharp.c ****   }
 599:Middlewares/Third_Party/LwIP/src/core/ipv4/etharp.c ****   return -1;
 600:Middlewares/Third_Party/LwIP/src/core/ipv4/etharp.c **** }
 601:Middlewares/Third_Party/LwIP/src/core/ipv4/etharp.c **** 
 602:Middlewares/Third_Party/LwIP/src/core/ipv4/etharp.c **** /**
 603:Middlewares/Third_Party/LwIP/src/core/ipv4/etharp.c ****  * Possibility to iterate over stable ARP table entries
 604:Middlewares/Third_Party/LwIP/src/core/ipv4/etharp.c ****  *
 605:Middlewares/Third_Party/LwIP/src/core/ipv4/etharp.c ****  * @param i entry number, 0 to ARP_TABLE_SIZE
 606:Middlewares/Third_Party/LwIP/src/core/ipv4/etharp.c ****  * @param ipaddr return value: IP address
 607:Middlewares/Third_Party/LwIP/src/core/ipv4/etharp.c ****  * @param netif return value: points to interface
 608:Middlewares/Third_Party/LwIP/src/core/ipv4/etharp.c ****  * @param eth_ret return value: ETH address
 609:Middlewares/Third_Party/LwIP/src/core/ipv4/etharp.c ****  * @return 1 on valid index, 0 otherwise
 610:Middlewares/Third_Party/LwIP/src/core/ipv4/etharp.c ****  */
 611:Middlewares/Third_Party/LwIP/src/core/ipv4/etharp.c **** int
ARM GAS  /var/folders/6z/bj4rvlwn0mvdnknwnn42jd6r0000gn/T//ccvcQ9wF.s 			page 26


 612:Middlewares/Third_Party/LwIP/src/core/ipv4/etharp.c **** etharp_get_entry(size_t i, ip4_addr_t **ipaddr, struct netif **netif, struct eth_addr **eth_ret)
 613:Middlewares/Third_Party/LwIP/src/core/ipv4/etharp.c **** {
 614:Middlewares/Third_Party/LwIP/src/core/ipv4/etharp.c ****   LWIP_ASSERT("ipaddr != NULL", ipaddr != NULL);
 615:Middlewares/Third_Party/LwIP/src/core/ipv4/etharp.c ****   LWIP_ASSERT("netif != NULL", netif != NULL);
 616:Middlewares/Third_Party/LwIP/src/core/ipv4/etharp.c ****   LWIP_ASSERT("eth_ret != NULL", eth_ret != NULL);
 617:Middlewares/Third_Party/LwIP/src/core/ipv4/etharp.c **** 
 618:Middlewares/Third_Party/LwIP/src/core/ipv4/etharp.c ****   if ((i < ARP_TABLE_SIZE) && (arp_table[i].state >= ETHARP_STATE_STABLE)) {
 619:Middlewares/Third_Party/LwIP/src/core/ipv4/etharp.c ****     *ipaddr  = &arp_table[i].ipaddr;
 620:Middlewares/Third_Party/LwIP/src/core/ipv4/etharp.c ****     *netif   = arp_table[i].netif;
 621:Middlewares/Third_Party/LwIP/src/core/ipv4/etharp.c ****     *eth_ret = &arp_table[i].ethaddr;
 622:Middlewares/Third_Party/LwIP/src/core/ipv4/etharp.c ****     return 1;
 623:Middlewares/Third_Party/LwIP/src/core/ipv4/etharp.c ****   } else {
 624:Middlewares/Third_Party/LwIP/src/core/ipv4/etharp.c ****     return 0;
 625:Middlewares/Third_Party/LwIP/src/core/ipv4/etharp.c ****   }
 626:Middlewares/Third_Party/LwIP/src/core/ipv4/etharp.c **** }
 627:Middlewares/Third_Party/LwIP/src/core/ipv4/etharp.c **** 
 628:Middlewares/Third_Party/LwIP/src/core/ipv4/etharp.c **** /**
 629:Middlewares/Third_Party/LwIP/src/core/ipv4/etharp.c ****  * Responds to ARP requests to us. Upon ARP replies to us, add entry to cache
 630:Middlewares/Third_Party/LwIP/src/core/ipv4/etharp.c ****  * send out queued IP packets. Updates cache with snooped address pairs.
 631:Middlewares/Third_Party/LwIP/src/core/ipv4/etharp.c ****  *
 632:Middlewares/Third_Party/LwIP/src/core/ipv4/etharp.c ****  * Should be called for incoming ARP packets. The pbuf in the argument
 633:Middlewares/Third_Party/LwIP/src/core/ipv4/etharp.c ****  * is freed by this function.
 634:Middlewares/Third_Party/LwIP/src/core/ipv4/etharp.c ****  *
 635:Middlewares/Third_Party/LwIP/src/core/ipv4/etharp.c ****  * @param p The ARP packet that arrived on netif. Is freed by this function.
 636:Middlewares/Third_Party/LwIP/src/core/ipv4/etharp.c ****  * @param netif The lwIP network interface on which the ARP packet pbuf arrived.
 637:Middlewares/Third_Party/LwIP/src/core/ipv4/etharp.c ****  *
 638:Middlewares/Third_Party/LwIP/src/core/ipv4/etharp.c ****  * @see pbuf_free()
 639:Middlewares/Third_Party/LwIP/src/core/ipv4/etharp.c ****  */
 640:Middlewares/Third_Party/LwIP/src/core/ipv4/etharp.c **** void
 641:Middlewares/Third_Party/LwIP/src/core/ipv4/etharp.c **** etharp_input(struct pbuf *p, struct netif *netif)
 642:Middlewares/Third_Party/LwIP/src/core/ipv4/etharp.c **** {
 643:Middlewares/Third_Party/LwIP/src/core/ipv4/etharp.c ****   struct etharp_hdr *hdr;
 644:Middlewares/Third_Party/LwIP/src/core/ipv4/etharp.c ****   /* these are aligned properly, whereas the ARP header fields might not be */
 645:Middlewares/Third_Party/LwIP/src/core/ipv4/etharp.c ****   ip4_addr_t sipaddr, dipaddr;
 646:Middlewares/Third_Party/LwIP/src/core/ipv4/etharp.c ****   u8_t for_us;
 647:Middlewares/Third_Party/LwIP/src/core/ipv4/etharp.c **** 
 648:Middlewares/Third_Party/LwIP/src/core/ipv4/etharp.c ****   LWIP_ASSERT_CORE_LOCKED();
 649:Middlewares/Third_Party/LwIP/src/core/ipv4/etharp.c **** 
 650:Middlewares/Third_Party/LwIP/src/core/ipv4/etharp.c ****   LWIP_ERROR("netif != NULL", (netif != NULL), return;);
 651:Middlewares/Third_Party/LwIP/src/core/ipv4/etharp.c **** 
 652:Middlewares/Third_Party/LwIP/src/core/ipv4/etharp.c ****   hdr = (struct etharp_hdr *)p->payload;
 653:Middlewares/Third_Party/LwIP/src/core/ipv4/etharp.c **** 
 654:Middlewares/Third_Party/LwIP/src/core/ipv4/etharp.c ****   /* RFC 826 "Packet Reception": */
 655:Middlewares/Third_Party/LwIP/src/core/ipv4/etharp.c ****   if ((hdr->hwtype != PP_HTONS(LWIP_IANA_HWTYPE_ETHERNET)) ||
 656:Middlewares/Third_Party/LwIP/src/core/ipv4/etharp.c ****       (hdr->hwlen != ETH_HWADDR_LEN) ||
 657:Middlewares/Third_Party/LwIP/src/core/ipv4/etharp.c ****       (hdr->protolen != sizeof(ip4_addr_t)) ||
 658:Middlewares/Third_Party/LwIP/src/core/ipv4/etharp.c ****       (hdr->proto != PP_HTONS(ETHTYPE_IP)))  {
 659:Middlewares/Third_Party/LwIP/src/core/ipv4/etharp.c ****     LWIP_DEBUGF(ETHARP_DEBUG | LWIP_DBG_TRACE | LWIP_DBG_LEVEL_WARNING,
 660:Middlewares/Third_Party/LwIP/src/core/ipv4/etharp.c ****                 ("etharp_input: packet dropped, wrong hw type, hwlen, proto, protolen or ethernet t
 661:Middlewares/Third_Party/LwIP/src/core/ipv4/etharp.c ****                  hdr->hwtype, (u16_t)hdr->hwlen, hdr->proto, (u16_t)hdr->protolen));
 662:Middlewares/Third_Party/LwIP/src/core/ipv4/etharp.c ****     ETHARP_STATS_INC(etharp.proterr);
 663:Middlewares/Third_Party/LwIP/src/core/ipv4/etharp.c ****     ETHARP_STATS_INC(etharp.drop);
 664:Middlewares/Third_Party/LwIP/src/core/ipv4/etharp.c ****     pbuf_free(p);
 665:Middlewares/Third_Party/LwIP/src/core/ipv4/etharp.c ****     return;
 666:Middlewares/Third_Party/LwIP/src/core/ipv4/etharp.c ****   }
 667:Middlewares/Third_Party/LwIP/src/core/ipv4/etharp.c ****   ETHARP_STATS_INC(etharp.recv);
 668:Middlewares/Third_Party/LwIP/src/core/ipv4/etharp.c **** 
ARM GAS  /var/folders/6z/bj4rvlwn0mvdnknwnn42jd6r0000gn/T//ccvcQ9wF.s 			page 27


 669:Middlewares/Third_Party/LwIP/src/core/ipv4/etharp.c **** #if LWIP_AUTOIP
 670:Middlewares/Third_Party/LwIP/src/core/ipv4/etharp.c ****   /* We have to check if a host already has configured our random
 671:Middlewares/Third_Party/LwIP/src/core/ipv4/etharp.c ****    * created link local address and continuously check if there is
 672:Middlewares/Third_Party/LwIP/src/core/ipv4/etharp.c ****    * a host with this IP-address so we can detect collisions */
 673:Middlewares/Third_Party/LwIP/src/core/ipv4/etharp.c ****   autoip_arp_reply(netif, hdr);
 674:Middlewares/Third_Party/LwIP/src/core/ipv4/etharp.c **** #endif /* LWIP_AUTOIP */
 675:Middlewares/Third_Party/LwIP/src/core/ipv4/etharp.c **** 
 676:Middlewares/Third_Party/LwIP/src/core/ipv4/etharp.c ****   /* Copy struct ip4_addr_wordaligned to aligned ip4_addr, to support compilers without
 677:Middlewares/Third_Party/LwIP/src/core/ipv4/etharp.c ****    * structure packing (not using structure copy which breaks strict-aliasing rules). */
 678:Middlewares/Third_Party/LwIP/src/core/ipv4/etharp.c ****   IPADDR_WORDALIGNED_COPY_TO_IP4_ADDR_T(&sipaddr, &hdr->sipaddr);
 679:Middlewares/Third_Party/LwIP/src/core/ipv4/etharp.c ****   IPADDR_WORDALIGNED_COPY_TO_IP4_ADDR_T(&dipaddr, &hdr->dipaddr);
 680:Middlewares/Third_Party/LwIP/src/core/ipv4/etharp.c **** 
 681:Middlewares/Third_Party/LwIP/src/core/ipv4/etharp.c ****   /* this interface is not configured? */
 682:Middlewares/Third_Party/LwIP/src/core/ipv4/etharp.c ****   if (ip4_addr_isany_val(*netif_ip4_addr(netif))) {
 683:Middlewares/Third_Party/LwIP/src/core/ipv4/etharp.c ****     for_us = 0;
 684:Middlewares/Third_Party/LwIP/src/core/ipv4/etharp.c ****   } else {
 685:Middlewares/Third_Party/LwIP/src/core/ipv4/etharp.c ****     /* ARP packet directed to us? */
 686:Middlewares/Third_Party/LwIP/src/core/ipv4/etharp.c ****     for_us = (u8_t)ip4_addr_cmp(&dipaddr, netif_ip4_addr(netif));
 687:Middlewares/Third_Party/LwIP/src/core/ipv4/etharp.c ****   }
 688:Middlewares/Third_Party/LwIP/src/core/ipv4/etharp.c **** 
 689:Middlewares/Third_Party/LwIP/src/core/ipv4/etharp.c ****   /* ARP message directed to us?
 690:Middlewares/Third_Party/LwIP/src/core/ipv4/etharp.c ****       -> add IP address in ARP cache; assume requester wants to talk to us,
 691:Middlewares/Third_Party/LwIP/src/core/ipv4/etharp.c ****          can result in directly sending the queued packets for this host.
 692:Middlewares/Third_Party/LwIP/src/core/ipv4/etharp.c ****      ARP message not directed to us?
 693:Middlewares/Third_Party/LwIP/src/core/ipv4/etharp.c ****       ->  update the source IP address in the cache, if present */
 694:Middlewares/Third_Party/LwIP/src/core/ipv4/etharp.c ****   etharp_update_arp_entry(netif, &sipaddr, &(hdr->shwaddr),
 695:Middlewares/Third_Party/LwIP/src/core/ipv4/etharp.c ****                           for_us ? ETHARP_FLAG_TRY_HARD : ETHARP_FLAG_FIND_ONLY);
 696:Middlewares/Third_Party/LwIP/src/core/ipv4/etharp.c **** 
 697:Middlewares/Third_Party/LwIP/src/core/ipv4/etharp.c ****   /* now act on the message itself */
 698:Middlewares/Third_Party/LwIP/src/core/ipv4/etharp.c ****   switch (hdr->opcode) {
 699:Middlewares/Third_Party/LwIP/src/core/ipv4/etharp.c ****     /* ARP request? */
 700:Middlewares/Third_Party/LwIP/src/core/ipv4/etharp.c ****     case PP_HTONS(ARP_REQUEST):
 701:Middlewares/Third_Party/LwIP/src/core/ipv4/etharp.c ****       /* ARP request. If it asked for our address, we send out a
 702:Middlewares/Third_Party/LwIP/src/core/ipv4/etharp.c ****        * reply. In any case, we time-stamp any existing ARP entry,
 703:Middlewares/Third_Party/LwIP/src/core/ipv4/etharp.c ****        * and possibly send out an IP packet that was queued on it. */
 704:Middlewares/Third_Party/LwIP/src/core/ipv4/etharp.c **** 
 705:Middlewares/Third_Party/LwIP/src/core/ipv4/etharp.c ****       LWIP_DEBUGF (ETHARP_DEBUG | LWIP_DBG_TRACE, ("etharp_input: incoming ARP request\n"));
 706:Middlewares/Third_Party/LwIP/src/core/ipv4/etharp.c ****       /* ARP request for our address? */
 707:Middlewares/Third_Party/LwIP/src/core/ipv4/etharp.c ****       if (for_us) {
 708:Middlewares/Third_Party/LwIP/src/core/ipv4/etharp.c ****         /* send ARP response */
 709:Middlewares/Third_Party/LwIP/src/core/ipv4/etharp.c ****         etharp_raw(netif,
 710:Middlewares/Third_Party/LwIP/src/core/ipv4/etharp.c ****                    (struct eth_addr *)netif->hwaddr, &hdr->shwaddr,
 711:Middlewares/Third_Party/LwIP/src/core/ipv4/etharp.c ****                    (struct eth_addr *)netif->hwaddr, netif_ip4_addr(netif),
 712:Middlewares/Third_Party/LwIP/src/core/ipv4/etharp.c ****                    &hdr->shwaddr, &sipaddr,
 713:Middlewares/Third_Party/LwIP/src/core/ipv4/etharp.c ****                    ARP_REPLY);
 714:Middlewares/Third_Party/LwIP/src/core/ipv4/etharp.c ****         /* we are not configured? */
 715:Middlewares/Third_Party/LwIP/src/core/ipv4/etharp.c ****       } else if (ip4_addr_isany_val(*netif_ip4_addr(netif))) {
 716:Middlewares/Third_Party/LwIP/src/core/ipv4/etharp.c ****         /* { for_us == 0 and netif->ip_addr.addr == 0 } */
 717:Middlewares/Third_Party/LwIP/src/core/ipv4/etharp.c ****         LWIP_DEBUGF(ETHARP_DEBUG | LWIP_DBG_TRACE, ("etharp_input: we are unconfigured, ARP request
 718:Middlewares/Third_Party/LwIP/src/core/ipv4/etharp.c ****         /* request was not directed to us */
 719:Middlewares/Third_Party/LwIP/src/core/ipv4/etharp.c ****       } else {
 720:Middlewares/Third_Party/LwIP/src/core/ipv4/etharp.c ****         /* { for_us == 0 and netif->ip_addr.addr != 0 } */
 721:Middlewares/Third_Party/LwIP/src/core/ipv4/etharp.c ****         LWIP_DEBUGF(ETHARP_DEBUG | LWIP_DBG_TRACE, ("etharp_input: ARP request was not for us.\n"))
 722:Middlewares/Third_Party/LwIP/src/core/ipv4/etharp.c ****       }
 723:Middlewares/Third_Party/LwIP/src/core/ipv4/etharp.c ****       break;
 724:Middlewares/Third_Party/LwIP/src/core/ipv4/etharp.c ****     case PP_HTONS(ARP_REPLY):
 725:Middlewares/Third_Party/LwIP/src/core/ipv4/etharp.c ****       /* ARP reply. We already updated the ARP cache earlier. */
ARM GAS  /var/folders/6z/bj4rvlwn0mvdnknwnn42jd6r0000gn/T//ccvcQ9wF.s 			page 28


 726:Middlewares/Third_Party/LwIP/src/core/ipv4/etharp.c ****       LWIP_DEBUGF(ETHARP_DEBUG | LWIP_DBG_TRACE, ("etharp_input: incoming ARP reply\n"));
 727:Middlewares/Third_Party/LwIP/src/core/ipv4/etharp.c **** #if (LWIP_DHCP && DHCP_DOES_ARP_CHECK)
 728:Middlewares/Third_Party/LwIP/src/core/ipv4/etharp.c ****       /* DHCP wants to know about ARP replies from any host with an
 729:Middlewares/Third_Party/LwIP/src/core/ipv4/etharp.c ****        * IP address also offered to us by the DHCP server. We do not
 730:Middlewares/Third_Party/LwIP/src/core/ipv4/etharp.c ****        * want to take a duplicate IP address on a single network.
 731:Middlewares/Third_Party/LwIP/src/core/ipv4/etharp.c ****        * @todo How should we handle redundant (fail-over) interfaces? */
 732:Middlewares/Third_Party/LwIP/src/core/ipv4/etharp.c ****       dhcp_arp_reply(netif, &sipaddr);
 733:Middlewares/Third_Party/LwIP/src/core/ipv4/etharp.c **** #endif /* (LWIP_DHCP && DHCP_DOES_ARP_CHECK) */
 734:Middlewares/Third_Party/LwIP/src/core/ipv4/etharp.c ****       break;
 735:Middlewares/Third_Party/LwIP/src/core/ipv4/etharp.c ****     default:
 736:Middlewares/Third_Party/LwIP/src/core/ipv4/etharp.c ****       LWIP_DEBUGF(ETHARP_DEBUG | LWIP_DBG_TRACE, ("etharp_input: ARP unknown opcode type %"S16_F"\n
 737:Middlewares/Third_Party/LwIP/src/core/ipv4/etharp.c ****       ETHARP_STATS_INC(etharp.err);
 738:Middlewares/Third_Party/LwIP/src/core/ipv4/etharp.c ****       break;
 739:Middlewares/Third_Party/LwIP/src/core/ipv4/etharp.c ****   }
 740:Middlewares/Third_Party/LwIP/src/core/ipv4/etharp.c ****   /* free ARP packet */
 741:Middlewares/Third_Party/LwIP/src/core/ipv4/etharp.c ****   pbuf_free(p);
 742:Middlewares/Third_Party/LwIP/src/core/ipv4/etharp.c **** }
 743:Middlewares/Third_Party/LwIP/src/core/ipv4/etharp.c **** 
 744:Middlewares/Third_Party/LwIP/src/core/ipv4/etharp.c **** /** Just a small helper function that sends a pbuf to an ethernet address
 745:Middlewares/Third_Party/LwIP/src/core/ipv4/etharp.c ****  * in the arp_table specified by the index 'arp_idx'.
 746:Middlewares/Third_Party/LwIP/src/core/ipv4/etharp.c ****  */
 747:Middlewares/Third_Party/LwIP/src/core/ipv4/etharp.c **** static err_t
 748:Middlewares/Third_Party/LwIP/src/core/ipv4/etharp.c **** etharp_output_to_arp_index(struct netif *netif, struct pbuf *q, netif_addr_idx_t arp_idx)
 749:Middlewares/Third_Party/LwIP/src/core/ipv4/etharp.c **** {
 750:Middlewares/Third_Party/LwIP/src/core/ipv4/etharp.c ****   LWIP_ASSERT("arp_table[arp_idx].state >= ETHARP_STATE_STABLE",
 751:Middlewares/Third_Party/LwIP/src/core/ipv4/etharp.c ****               arp_table[arp_idx].state >= ETHARP_STATE_STABLE);
 752:Middlewares/Third_Party/LwIP/src/core/ipv4/etharp.c ****   /* if arp table entry is about to expire: re-request it,
 753:Middlewares/Third_Party/LwIP/src/core/ipv4/etharp.c ****      but only if its state is ETHARP_STATE_STABLE to prevent flooding the
 754:Middlewares/Third_Party/LwIP/src/core/ipv4/etharp.c ****      network with ARP requests if this address is used frequently. */
 755:Middlewares/Third_Party/LwIP/src/core/ipv4/etharp.c ****   if (arp_table[arp_idx].state == ETHARP_STATE_STABLE) {
 756:Middlewares/Third_Party/LwIP/src/core/ipv4/etharp.c ****     if (arp_table[arp_idx].ctime >= ARP_AGE_REREQUEST_USED_BROADCAST) {
 757:Middlewares/Third_Party/LwIP/src/core/ipv4/etharp.c ****       /* issue a standard request using broadcast */
 758:Middlewares/Third_Party/LwIP/src/core/ipv4/etharp.c ****       if (etharp_request(netif, &arp_table[arp_idx].ipaddr) == ERR_OK) {
 759:Middlewares/Third_Party/LwIP/src/core/ipv4/etharp.c ****         arp_table[arp_idx].state = ETHARP_STATE_STABLE_REREQUESTING_1;
 760:Middlewares/Third_Party/LwIP/src/core/ipv4/etharp.c ****       }
 761:Middlewares/Third_Party/LwIP/src/core/ipv4/etharp.c ****     } else if (arp_table[arp_idx].ctime >= ARP_AGE_REREQUEST_USED_UNICAST) {
 762:Middlewares/Third_Party/LwIP/src/core/ipv4/etharp.c ****       /* issue a unicast request (for 15 seconds) to prevent unnecessary broadcast */
 763:Middlewares/Third_Party/LwIP/src/core/ipv4/etharp.c ****       if (etharp_request_dst(netif, &arp_table[arp_idx].ipaddr, &arp_table[arp_idx].ethaddr) == ERR
 764:Middlewares/Third_Party/LwIP/src/core/ipv4/etharp.c ****         arp_table[arp_idx].state = ETHARP_STATE_STABLE_REREQUESTING_1;
 765:Middlewares/Third_Party/LwIP/src/core/ipv4/etharp.c ****       }
 766:Middlewares/Third_Party/LwIP/src/core/ipv4/etharp.c ****     }
 767:Middlewares/Third_Party/LwIP/src/core/ipv4/etharp.c ****   }
 768:Middlewares/Third_Party/LwIP/src/core/ipv4/etharp.c **** 
 769:Middlewares/Third_Party/LwIP/src/core/ipv4/etharp.c ****   return ethernet_output(netif, q, (struct eth_addr *)(netif->hwaddr), &arp_table[arp_idx].ethaddr,
 770:Middlewares/Third_Party/LwIP/src/core/ipv4/etharp.c **** }
 771:Middlewares/Third_Party/LwIP/src/core/ipv4/etharp.c **** 
 772:Middlewares/Third_Party/LwIP/src/core/ipv4/etharp.c **** /**
 773:Middlewares/Third_Party/LwIP/src/core/ipv4/etharp.c ****  * Resolve and fill-in Ethernet address header for outgoing IP packet.
 774:Middlewares/Third_Party/LwIP/src/core/ipv4/etharp.c ****  *
 775:Middlewares/Third_Party/LwIP/src/core/ipv4/etharp.c ****  * For IP multicast and broadcast, corresponding Ethernet addresses
 776:Middlewares/Third_Party/LwIP/src/core/ipv4/etharp.c ****  * are selected and the packet is transmitted on the link.
 777:Middlewares/Third_Party/LwIP/src/core/ipv4/etharp.c ****  *
 778:Middlewares/Third_Party/LwIP/src/core/ipv4/etharp.c ****  * For unicast addresses, the packet is submitted to etharp_query(). In
 779:Middlewares/Third_Party/LwIP/src/core/ipv4/etharp.c ****  * case the IP address is outside the local network, the IP address of
 780:Middlewares/Third_Party/LwIP/src/core/ipv4/etharp.c ****  * the gateway is used.
 781:Middlewares/Third_Party/LwIP/src/core/ipv4/etharp.c ****  *
 782:Middlewares/Third_Party/LwIP/src/core/ipv4/etharp.c ****  * @param netif The lwIP network interface which the IP packet will be sent on.
ARM GAS  /var/folders/6z/bj4rvlwn0mvdnknwnn42jd6r0000gn/T//ccvcQ9wF.s 			page 29


 783:Middlewares/Third_Party/LwIP/src/core/ipv4/etharp.c ****  * @param q The pbuf(s) containing the IP packet to be sent.
 784:Middlewares/Third_Party/LwIP/src/core/ipv4/etharp.c ****  * @param ipaddr The IP address of the packet destination.
 785:Middlewares/Third_Party/LwIP/src/core/ipv4/etharp.c ****  *
 786:Middlewares/Third_Party/LwIP/src/core/ipv4/etharp.c ****  * @return
 787:Middlewares/Third_Party/LwIP/src/core/ipv4/etharp.c ****  * - ERR_RTE No route to destination (no gateway to external networks),
 788:Middlewares/Third_Party/LwIP/src/core/ipv4/etharp.c ****  * or the return type of either etharp_query() or ethernet_output().
 789:Middlewares/Third_Party/LwIP/src/core/ipv4/etharp.c ****  */
 790:Middlewares/Third_Party/LwIP/src/core/ipv4/etharp.c **** err_t
 791:Middlewares/Third_Party/LwIP/src/core/ipv4/etharp.c **** etharp_output(struct netif *netif, struct pbuf *q, const ip4_addr_t *ipaddr)
 792:Middlewares/Third_Party/LwIP/src/core/ipv4/etharp.c **** {
 793:Middlewares/Third_Party/LwIP/src/core/ipv4/etharp.c ****   const struct eth_addr *dest;
 794:Middlewares/Third_Party/LwIP/src/core/ipv4/etharp.c ****   struct eth_addr mcastaddr;
 795:Middlewares/Third_Party/LwIP/src/core/ipv4/etharp.c ****   const ip4_addr_t *dst_addr = ipaddr;
 796:Middlewares/Third_Party/LwIP/src/core/ipv4/etharp.c **** 
 797:Middlewares/Third_Party/LwIP/src/core/ipv4/etharp.c ****   LWIP_ASSERT_CORE_LOCKED();
 798:Middlewares/Third_Party/LwIP/src/core/ipv4/etharp.c ****   LWIP_ASSERT("netif != NULL", netif != NULL);
 799:Middlewares/Third_Party/LwIP/src/core/ipv4/etharp.c ****   LWIP_ASSERT("q != NULL", q != NULL);
 800:Middlewares/Third_Party/LwIP/src/core/ipv4/etharp.c ****   LWIP_ASSERT("ipaddr != NULL", ipaddr != NULL);
 801:Middlewares/Third_Party/LwIP/src/core/ipv4/etharp.c **** 
 802:Middlewares/Third_Party/LwIP/src/core/ipv4/etharp.c ****   /* Determine on destination hardware address. Broadcasts and multicasts
 803:Middlewares/Third_Party/LwIP/src/core/ipv4/etharp.c ****    * are special, other IP addresses are looked up in the ARP table. */
 804:Middlewares/Third_Party/LwIP/src/core/ipv4/etharp.c **** 
 805:Middlewares/Third_Party/LwIP/src/core/ipv4/etharp.c ****   /* broadcast destination IP address? */
 806:Middlewares/Third_Party/LwIP/src/core/ipv4/etharp.c ****   if (ip4_addr_isbroadcast(ipaddr, netif)) {
 807:Middlewares/Third_Party/LwIP/src/core/ipv4/etharp.c ****     /* broadcast on Ethernet also */
 808:Middlewares/Third_Party/LwIP/src/core/ipv4/etharp.c ****     dest = (const struct eth_addr *)&ethbroadcast;
 809:Middlewares/Third_Party/LwIP/src/core/ipv4/etharp.c ****     /* multicast destination IP address? */
 810:Middlewares/Third_Party/LwIP/src/core/ipv4/etharp.c ****   } else if (ip4_addr_ismulticast(ipaddr)) {
 811:Middlewares/Third_Party/LwIP/src/core/ipv4/etharp.c ****     /* Hash IP multicast address to MAC address.*/
 812:Middlewares/Third_Party/LwIP/src/core/ipv4/etharp.c ****     mcastaddr.addr[0] = LL_IP4_MULTICAST_ADDR_0;
 813:Middlewares/Third_Party/LwIP/src/core/ipv4/etharp.c ****     mcastaddr.addr[1] = LL_IP4_MULTICAST_ADDR_1;
 814:Middlewares/Third_Party/LwIP/src/core/ipv4/etharp.c ****     mcastaddr.addr[2] = LL_IP4_MULTICAST_ADDR_2;
 815:Middlewares/Third_Party/LwIP/src/core/ipv4/etharp.c ****     mcastaddr.addr[3] = ip4_addr2(ipaddr) & 0x7f;
 816:Middlewares/Third_Party/LwIP/src/core/ipv4/etharp.c ****     mcastaddr.addr[4] = ip4_addr3(ipaddr);
 817:Middlewares/Third_Party/LwIP/src/core/ipv4/etharp.c ****     mcastaddr.addr[5] = ip4_addr4(ipaddr);
 818:Middlewares/Third_Party/LwIP/src/core/ipv4/etharp.c ****     /* destination Ethernet address is multicast */
 819:Middlewares/Third_Party/LwIP/src/core/ipv4/etharp.c ****     dest = &mcastaddr;
 820:Middlewares/Third_Party/LwIP/src/core/ipv4/etharp.c ****     /* unicast destination IP address? */
 821:Middlewares/Third_Party/LwIP/src/core/ipv4/etharp.c ****   } else {
 822:Middlewares/Third_Party/LwIP/src/core/ipv4/etharp.c ****     netif_addr_idx_t i;
 823:Middlewares/Third_Party/LwIP/src/core/ipv4/etharp.c ****     /* outside local network? if so, this can neither be a global broadcast nor
 824:Middlewares/Third_Party/LwIP/src/core/ipv4/etharp.c ****        a subnet broadcast. */
 825:Middlewares/Third_Party/LwIP/src/core/ipv4/etharp.c ****     if (!ip4_addr_netcmp(ipaddr, netif_ip4_addr(netif), netif_ip4_netmask(netif)) &&
 826:Middlewares/Third_Party/LwIP/src/core/ipv4/etharp.c ****         !ip4_addr_islinklocal(ipaddr)) {
 827:Middlewares/Third_Party/LwIP/src/core/ipv4/etharp.c **** #if LWIP_AUTOIP
 828:Middlewares/Third_Party/LwIP/src/core/ipv4/etharp.c ****       struct ip_hdr *iphdr = LWIP_ALIGNMENT_CAST(struct ip_hdr *, q->payload);
 829:Middlewares/Third_Party/LwIP/src/core/ipv4/etharp.c ****       /* According to RFC 3297, chapter 2.6.2 (Forwarding Rules), a packet with
 830:Middlewares/Third_Party/LwIP/src/core/ipv4/etharp.c ****          a link-local source address must always be "directly to its destination
 831:Middlewares/Third_Party/LwIP/src/core/ipv4/etharp.c ****          on the same physical link. The host MUST NOT send the packet to any
 832:Middlewares/Third_Party/LwIP/src/core/ipv4/etharp.c ****          router for forwarding". */
 833:Middlewares/Third_Party/LwIP/src/core/ipv4/etharp.c ****       if (!ip4_addr_islinklocal(&iphdr->src))
 834:Middlewares/Third_Party/LwIP/src/core/ipv4/etharp.c **** #endif /* LWIP_AUTOIP */
 835:Middlewares/Third_Party/LwIP/src/core/ipv4/etharp.c ****       {
 836:Middlewares/Third_Party/LwIP/src/core/ipv4/etharp.c **** #ifdef LWIP_HOOK_ETHARP_GET_GW
 837:Middlewares/Third_Party/LwIP/src/core/ipv4/etharp.c ****         /* For advanced routing, a single default gateway might not be enough, so get
 838:Middlewares/Third_Party/LwIP/src/core/ipv4/etharp.c ****            the IP address of the gateway to handle the current destination address. */
 839:Middlewares/Third_Party/LwIP/src/core/ipv4/etharp.c ****         dst_addr = LWIP_HOOK_ETHARP_GET_GW(netif, ipaddr);
ARM GAS  /var/folders/6z/bj4rvlwn0mvdnknwnn42jd6r0000gn/T//ccvcQ9wF.s 			page 30


 840:Middlewares/Third_Party/LwIP/src/core/ipv4/etharp.c ****         if (dst_addr == NULL)
 841:Middlewares/Third_Party/LwIP/src/core/ipv4/etharp.c **** #endif /* LWIP_HOOK_ETHARP_GET_GW */
 842:Middlewares/Third_Party/LwIP/src/core/ipv4/etharp.c ****         {
 843:Middlewares/Third_Party/LwIP/src/core/ipv4/etharp.c ****           /* interface has default gateway? */
 844:Middlewares/Third_Party/LwIP/src/core/ipv4/etharp.c ****           if (!ip4_addr_isany_val(*netif_ip4_gw(netif))) {
 845:Middlewares/Third_Party/LwIP/src/core/ipv4/etharp.c ****             /* send to hardware address of default gateway IP address */
 846:Middlewares/Third_Party/LwIP/src/core/ipv4/etharp.c ****             dst_addr = netif_ip4_gw(netif);
 847:Middlewares/Third_Party/LwIP/src/core/ipv4/etharp.c ****             /* no default gateway available */
 848:Middlewares/Third_Party/LwIP/src/core/ipv4/etharp.c ****           } else {
 849:Middlewares/Third_Party/LwIP/src/core/ipv4/etharp.c ****             /* no route to destination error (default gateway missing) */
 850:Middlewares/Third_Party/LwIP/src/core/ipv4/etharp.c ****             return ERR_RTE;
 851:Middlewares/Third_Party/LwIP/src/core/ipv4/etharp.c ****           }
 852:Middlewares/Third_Party/LwIP/src/core/ipv4/etharp.c ****         }
 853:Middlewares/Third_Party/LwIP/src/core/ipv4/etharp.c ****       }
 854:Middlewares/Third_Party/LwIP/src/core/ipv4/etharp.c ****     }
 855:Middlewares/Third_Party/LwIP/src/core/ipv4/etharp.c **** #if LWIP_NETIF_HWADDRHINT
 856:Middlewares/Third_Party/LwIP/src/core/ipv4/etharp.c ****     if (netif->hints != NULL) {
 857:Middlewares/Third_Party/LwIP/src/core/ipv4/etharp.c ****       /* per-pcb cached entry was given */
 858:Middlewares/Third_Party/LwIP/src/core/ipv4/etharp.c ****       netif_addr_idx_t etharp_cached_entry = netif->hints->addr_hint;
 859:Middlewares/Third_Party/LwIP/src/core/ipv4/etharp.c ****       if (etharp_cached_entry < ARP_TABLE_SIZE) {
 860:Middlewares/Third_Party/LwIP/src/core/ipv4/etharp.c **** #endif /* LWIP_NETIF_HWADDRHINT */
 861:Middlewares/Third_Party/LwIP/src/core/ipv4/etharp.c ****         if ((arp_table[etharp_cached_entry].state >= ETHARP_STATE_STABLE) &&
 862:Middlewares/Third_Party/LwIP/src/core/ipv4/etharp.c **** #if ETHARP_TABLE_MATCH_NETIF
 863:Middlewares/Third_Party/LwIP/src/core/ipv4/etharp.c ****             (arp_table[etharp_cached_entry].netif == netif) &&
 864:Middlewares/Third_Party/LwIP/src/core/ipv4/etharp.c **** #endif
 865:Middlewares/Third_Party/LwIP/src/core/ipv4/etharp.c ****             (ip4_addr_cmp(dst_addr, &arp_table[etharp_cached_entry].ipaddr))) {
 866:Middlewares/Third_Party/LwIP/src/core/ipv4/etharp.c ****           /* the per-pcb-cached entry is stable and the right one! */
 867:Middlewares/Third_Party/LwIP/src/core/ipv4/etharp.c ****           ETHARP_STATS_INC(etharp.cachehit);
 868:Middlewares/Third_Party/LwIP/src/core/ipv4/etharp.c ****           return etharp_output_to_arp_index(netif, q, etharp_cached_entry);
 869:Middlewares/Third_Party/LwIP/src/core/ipv4/etharp.c ****         }
 870:Middlewares/Third_Party/LwIP/src/core/ipv4/etharp.c **** #if LWIP_NETIF_HWADDRHINT
 871:Middlewares/Third_Party/LwIP/src/core/ipv4/etharp.c ****       }
 872:Middlewares/Third_Party/LwIP/src/core/ipv4/etharp.c ****     }
 873:Middlewares/Third_Party/LwIP/src/core/ipv4/etharp.c **** #endif /* LWIP_NETIF_HWADDRHINT */
 874:Middlewares/Third_Party/LwIP/src/core/ipv4/etharp.c **** 
 875:Middlewares/Third_Party/LwIP/src/core/ipv4/etharp.c ****     /* find stable entry: do this here since this is a critical path for
 876:Middlewares/Third_Party/LwIP/src/core/ipv4/etharp.c ****        throughput and etharp_find_entry() is kind of slow */
 877:Middlewares/Third_Party/LwIP/src/core/ipv4/etharp.c ****     for (i = 0; i < ARP_TABLE_SIZE; i++) {
 878:Middlewares/Third_Party/LwIP/src/core/ipv4/etharp.c ****       if ((arp_table[i].state >= ETHARP_STATE_STABLE) &&
 879:Middlewares/Third_Party/LwIP/src/core/ipv4/etharp.c **** #if ETHARP_TABLE_MATCH_NETIF
 880:Middlewares/Third_Party/LwIP/src/core/ipv4/etharp.c ****           (arp_table[i].netif == netif) &&
 881:Middlewares/Third_Party/LwIP/src/core/ipv4/etharp.c **** #endif
 882:Middlewares/Third_Party/LwIP/src/core/ipv4/etharp.c ****           (ip4_addr_cmp(dst_addr, &arp_table[i].ipaddr))) {
 883:Middlewares/Third_Party/LwIP/src/core/ipv4/etharp.c ****         /* found an existing, stable entry */
 884:Middlewares/Third_Party/LwIP/src/core/ipv4/etharp.c ****         ETHARP_SET_ADDRHINT(netif, i);
 885:Middlewares/Third_Party/LwIP/src/core/ipv4/etharp.c ****         return etharp_output_to_arp_index(netif, q, i);
 886:Middlewares/Third_Party/LwIP/src/core/ipv4/etharp.c ****       }
 887:Middlewares/Third_Party/LwIP/src/core/ipv4/etharp.c ****     }
 888:Middlewares/Third_Party/LwIP/src/core/ipv4/etharp.c ****     /* no stable entry found, use the (slower) query function:
 889:Middlewares/Third_Party/LwIP/src/core/ipv4/etharp.c ****        queue on destination Ethernet address belonging to ipaddr */
 890:Middlewares/Third_Party/LwIP/src/core/ipv4/etharp.c ****     return etharp_query(netif, dst_addr, q);
 891:Middlewares/Third_Party/LwIP/src/core/ipv4/etharp.c ****   }
 892:Middlewares/Third_Party/LwIP/src/core/ipv4/etharp.c **** 
 893:Middlewares/Third_Party/LwIP/src/core/ipv4/etharp.c ****   /* continuation for multicast/broadcast destinations */
 894:Middlewares/Third_Party/LwIP/src/core/ipv4/etharp.c ****   /* obtain source Ethernet address of the given interface */
 895:Middlewares/Third_Party/LwIP/src/core/ipv4/etharp.c ****   /* send packet directly on the link */
 896:Middlewares/Third_Party/LwIP/src/core/ipv4/etharp.c ****   return ethernet_output(netif, q, (struct eth_addr *)(netif->hwaddr), dest, ETHTYPE_IP);
ARM GAS  /var/folders/6z/bj4rvlwn0mvdnknwnn42jd6r0000gn/T//ccvcQ9wF.s 			page 31


 897:Middlewares/Third_Party/LwIP/src/core/ipv4/etharp.c **** }
 898:Middlewares/Third_Party/LwIP/src/core/ipv4/etharp.c **** 
 899:Middlewares/Third_Party/LwIP/src/core/ipv4/etharp.c **** /**
 900:Middlewares/Third_Party/LwIP/src/core/ipv4/etharp.c ****  * Send an ARP request for the given IP address and/or queue a packet.
 901:Middlewares/Third_Party/LwIP/src/core/ipv4/etharp.c ****  *
 902:Middlewares/Third_Party/LwIP/src/core/ipv4/etharp.c ****  * If the IP address was not yet in the cache, a pending ARP cache entry
 903:Middlewares/Third_Party/LwIP/src/core/ipv4/etharp.c ****  * is added and an ARP request is sent for the given address. The packet
 904:Middlewares/Third_Party/LwIP/src/core/ipv4/etharp.c ****  * is queued on this entry.
 905:Middlewares/Third_Party/LwIP/src/core/ipv4/etharp.c ****  *
 906:Middlewares/Third_Party/LwIP/src/core/ipv4/etharp.c ****  * If the IP address was already pending in the cache, a new ARP request
 907:Middlewares/Third_Party/LwIP/src/core/ipv4/etharp.c ****  * is sent for the given address. The packet is queued on this entry.
 908:Middlewares/Third_Party/LwIP/src/core/ipv4/etharp.c ****  *
 909:Middlewares/Third_Party/LwIP/src/core/ipv4/etharp.c ****  * If the IP address was already stable in the cache, and a packet is
 910:Middlewares/Third_Party/LwIP/src/core/ipv4/etharp.c ****  * given, it is directly sent and no ARP request is sent out.
 911:Middlewares/Third_Party/LwIP/src/core/ipv4/etharp.c ****  *
 912:Middlewares/Third_Party/LwIP/src/core/ipv4/etharp.c ****  * If the IP address was already stable in the cache, and no packet is
 913:Middlewares/Third_Party/LwIP/src/core/ipv4/etharp.c ****  * given, an ARP request is sent out.
 914:Middlewares/Third_Party/LwIP/src/core/ipv4/etharp.c ****  *
 915:Middlewares/Third_Party/LwIP/src/core/ipv4/etharp.c ****  * @param netif The lwIP network interface on which ipaddr
 916:Middlewares/Third_Party/LwIP/src/core/ipv4/etharp.c ****  * must be queried for.
 917:Middlewares/Third_Party/LwIP/src/core/ipv4/etharp.c ****  * @param ipaddr The IP address to be resolved.
 918:Middlewares/Third_Party/LwIP/src/core/ipv4/etharp.c ****  * @param q If non-NULL, a pbuf that must be delivered to the IP address.
 919:Middlewares/Third_Party/LwIP/src/core/ipv4/etharp.c ****  * q is not freed by this function.
 920:Middlewares/Third_Party/LwIP/src/core/ipv4/etharp.c ****  *
 921:Middlewares/Third_Party/LwIP/src/core/ipv4/etharp.c ****  * @note q must only be ONE packet, not a packet queue!
 922:Middlewares/Third_Party/LwIP/src/core/ipv4/etharp.c ****  *
 923:Middlewares/Third_Party/LwIP/src/core/ipv4/etharp.c ****  * @return
 924:Middlewares/Third_Party/LwIP/src/core/ipv4/etharp.c ****  * - ERR_BUF Could not make room for Ethernet header.
 925:Middlewares/Third_Party/LwIP/src/core/ipv4/etharp.c ****  * - ERR_MEM Hardware address unknown, and no more ARP entries available
 926:Middlewares/Third_Party/LwIP/src/core/ipv4/etharp.c ****  *   to query for address or queue the packet.
 927:Middlewares/Third_Party/LwIP/src/core/ipv4/etharp.c ****  * - ERR_MEM Could not queue packet due to memory shortage.
 928:Middlewares/Third_Party/LwIP/src/core/ipv4/etharp.c ****  * - ERR_RTE No route to destination (no gateway to external networks).
 929:Middlewares/Third_Party/LwIP/src/core/ipv4/etharp.c ****  * - ERR_ARG Non-unicast address given, those will not appear in ARP cache.
 930:Middlewares/Third_Party/LwIP/src/core/ipv4/etharp.c ****  *
 931:Middlewares/Third_Party/LwIP/src/core/ipv4/etharp.c ****  */
 932:Middlewares/Third_Party/LwIP/src/core/ipv4/etharp.c **** err_t
 933:Middlewares/Third_Party/LwIP/src/core/ipv4/etharp.c **** etharp_query(struct netif *netif, const ip4_addr_t *ipaddr, struct pbuf *q)
 934:Middlewares/Third_Party/LwIP/src/core/ipv4/etharp.c **** {
 935:Middlewares/Third_Party/LwIP/src/core/ipv4/etharp.c ****   struct eth_addr *srcaddr = (struct eth_addr *)netif->hwaddr;
 936:Middlewares/Third_Party/LwIP/src/core/ipv4/etharp.c ****   err_t result = ERR_MEM;
 937:Middlewares/Third_Party/LwIP/src/core/ipv4/etharp.c ****   int is_new_entry = 0;
 938:Middlewares/Third_Party/LwIP/src/core/ipv4/etharp.c ****   s16_t i_err;
 939:Middlewares/Third_Party/LwIP/src/core/ipv4/etharp.c ****   netif_addr_idx_t i;
 940:Middlewares/Third_Party/LwIP/src/core/ipv4/etharp.c **** 
 941:Middlewares/Third_Party/LwIP/src/core/ipv4/etharp.c ****   /* non-unicast address? */
 942:Middlewares/Third_Party/LwIP/src/core/ipv4/etharp.c ****   if (ip4_addr_isbroadcast(ipaddr, netif) ||
 943:Middlewares/Third_Party/LwIP/src/core/ipv4/etharp.c ****       ip4_addr_ismulticast(ipaddr) ||
 944:Middlewares/Third_Party/LwIP/src/core/ipv4/etharp.c ****       ip4_addr_isany(ipaddr)) {
 945:Middlewares/Third_Party/LwIP/src/core/ipv4/etharp.c ****     LWIP_DEBUGF(ETHARP_DEBUG | LWIP_DBG_TRACE, ("etharp_query: will not add non-unicast IP address 
 946:Middlewares/Third_Party/LwIP/src/core/ipv4/etharp.c ****     return ERR_ARG;
 947:Middlewares/Third_Party/LwIP/src/core/ipv4/etharp.c ****   }
 948:Middlewares/Third_Party/LwIP/src/core/ipv4/etharp.c **** 
 949:Middlewares/Third_Party/LwIP/src/core/ipv4/etharp.c ****   /* find entry in ARP cache, ask to create entry if queueing packet */
 950:Middlewares/Third_Party/LwIP/src/core/ipv4/etharp.c ****   i_err = etharp_find_entry(ipaddr, ETHARP_FLAG_TRY_HARD, netif);
 951:Middlewares/Third_Party/LwIP/src/core/ipv4/etharp.c **** 
 952:Middlewares/Third_Party/LwIP/src/core/ipv4/etharp.c ****   /* could not find or create entry? */
 953:Middlewares/Third_Party/LwIP/src/core/ipv4/etharp.c ****   if (i_err < 0) {
ARM GAS  /var/folders/6z/bj4rvlwn0mvdnknwnn42jd6r0000gn/T//ccvcQ9wF.s 			page 32


 954:Middlewares/Third_Party/LwIP/src/core/ipv4/etharp.c ****     LWIP_DEBUGF(ETHARP_DEBUG | LWIP_DBG_TRACE, ("etharp_query: could not create ARP entry\n"));
 955:Middlewares/Third_Party/LwIP/src/core/ipv4/etharp.c ****     if (q) {
 956:Middlewares/Third_Party/LwIP/src/core/ipv4/etharp.c ****       LWIP_DEBUGF(ETHARP_DEBUG | LWIP_DBG_TRACE, ("etharp_query: packet dropped\n"));
 957:Middlewares/Third_Party/LwIP/src/core/ipv4/etharp.c ****       ETHARP_STATS_INC(etharp.memerr);
 958:Middlewares/Third_Party/LwIP/src/core/ipv4/etharp.c ****     }
 959:Middlewares/Third_Party/LwIP/src/core/ipv4/etharp.c ****     return (err_t)i_err;
 960:Middlewares/Third_Party/LwIP/src/core/ipv4/etharp.c ****   }
 961:Middlewares/Third_Party/LwIP/src/core/ipv4/etharp.c ****   LWIP_ASSERT("type overflow", (size_t)i_err < NETIF_ADDR_IDX_MAX);
 962:Middlewares/Third_Party/LwIP/src/core/ipv4/etharp.c ****   i = (netif_addr_idx_t)i_err;
 963:Middlewares/Third_Party/LwIP/src/core/ipv4/etharp.c **** 
 964:Middlewares/Third_Party/LwIP/src/core/ipv4/etharp.c ****   /* mark a fresh entry as pending (we just sent a request) */
 965:Middlewares/Third_Party/LwIP/src/core/ipv4/etharp.c ****   if (arp_table[i].state == ETHARP_STATE_EMPTY) {
 966:Middlewares/Third_Party/LwIP/src/core/ipv4/etharp.c ****     is_new_entry = 1;
 967:Middlewares/Third_Party/LwIP/src/core/ipv4/etharp.c ****     arp_table[i].state = ETHARP_STATE_PENDING;
 968:Middlewares/Third_Party/LwIP/src/core/ipv4/etharp.c ****     /* record network interface for re-sending arp request in etharp_tmr */
 969:Middlewares/Third_Party/LwIP/src/core/ipv4/etharp.c ****     arp_table[i].netif = netif;
 970:Middlewares/Third_Party/LwIP/src/core/ipv4/etharp.c ****   }
 971:Middlewares/Third_Party/LwIP/src/core/ipv4/etharp.c **** 
 972:Middlewares/Third_Party/LwIP/src/core/ipv4/etharp.c ****   /* { i is either a STABLE or (new or existing) PENDING entry } */
 973:Middlewares/Third_Party/LwIP/src/core/ipv4/etharp.c ****   LWIP_ASSERT("arp_table[i].state == PENDING or STABLE",
 974:Middlewares/Third_Party/LwIP/src/core/ipv4/etharp.c ****               ((arp_table[i].state == ETHARP_STATE_PENDING) ||
 975:Middlewares/Third_Party/LwIP/src/core/ipv4/etharp.c ****                (arp_table[i].state >= ETHARP_STATE_STABLE)));
 976:Middlewares/Third_Party/LwIP/src/core/ipv4/etharp.c **** 
 977:Middlewares/Third_Party/LwIP/src/core/ipv4/etharp.c ****   /* do we have a new entry? or an implicit query request? */
 978:Middlewares/Third_Party/LwIP/src/core/ipv4/etharp.c ****   if (is_new_entry || (q == NULL)) {
 979:Middlewares/Third_Party/LwIP/src/core/ipv4/etharp.c ****     /* try to resolve it; send out ARP request */
 980:Middlewares/Third_Party/LwIP/src/core/ipv4/etharp.c ****     result = etharp_request(netif, ipaddr);
 981:Middlewares/Third_Party/LwIP/src/core/ipv4/etharp.c ****     if (result != ERR_OK) {
 982:Middlewares/Third_Party/LwIP/src/core/ipv4/etharp.c ****       /* ARP request couldn't be sent */
 983:Middlewares/Third_Party/LwIP/src/core/ipv4/etharp.c ****       /* We don't re-send arp request in etharp_tmr, but we still queue packets,
 984:Middlewares/Third_Party/LwIP/src/core/ipv4/etharp.c ****          since this failure could be temporary, and the next packet calling
 985:Middlewares/Third_Party/LwIP/src/core/ipv4/etharp.c ****          etharp_query again could lead to sending the queued packets. */
 986:Middlewares/Third_Party/LwIP/src/core/ipv4/etharp.c ****     }
 987:Middlewares/Third_Party/LwIP/src/core/ipv4/etharp.c ****     if (q == NULL) {
 988:Middlewares/Third_Party/LwIP/src/core/ipv4/etharp.c ****       return result;
 989:Middlewares/Third_Party/LwIP/src/core/ipv4/etharp.c ****     }
 990:Middlewares/Third_Party/LwIP/src/core/ipv4/etharp.c ****   }
 991:Middlewares/Third_Party/LwIP/src/core/ipv4/etharp.c **** 
 992:Middlewares/Third_Party/LwIP/src/core/ipv4/etharp.c ****   /* packet given? */
 993:Middlewares/Third_Party/LwIP/src/core/ipv4/etharp.c ****   LWIP_ASSERT("q != NULL", q != NULL);
 994:Middlewares/Third_Party/LwIP/src/core/ipv4/etharp.c ****   /* stable entry? */
 995:Middlewares/Third_Party/LwIP/src/core/ipv4/etharp.c ****   if (arp_table[i].state >= ETHARP_STATE_STABLE) {
 996:Middlewares/Third_Party/LwIP/src/core/ipv4/etharp.c ****     /* we have a valid IP->Ethernet address mapping */
 997:Middlewares/Third_Party/LwIP/src/core/ipv4/etharp.c ****     ETHARP_SET_ADDRHINT(netif, i);
 998:Middlewares/Third_Party/LwIP/src/core/ipv4/etharp.c ****     /* send the packet */
 999:Middlewares/Third_Party/LwIP/src/core/ipv4/etharp.c ****     result = ethernet_output(netif, q, srcaddr, &(arp_table[i].ethaddr), ETHTYPE_IP);
1000:Middlewares/Third_Party/LwIP/src/core/ipv4/etharp.c ****     /* pending entry? (either just created or already pending */
1001:Middlewares/Third_Party/LwIP/src/core/ipv4/etharp.c ****   } else if (arp_table[i].state == ETHARP_STATE_PENDING) {
1002:Middlewares/Third_Party/LwIP/src/core/ipv4/etharp.c ****     /* entry is still pending, queue the given packet 'q' */
1003:Middlewares/Third_Party/LwIP/src/core/ipv4/etharp.c ****     struct pbuf *p;
1004:Middlewares/Third_Party/LwIP/src/core/ipv4/etharp.c ****     int copy_needed = 0;
1005:Middlewares/Third_Party/LwIP/src/core/ipv4/etharp.c ****     /* IF q includes a pbuf that must be copied, copy the whole chain into a
1006:Middlewares/Third_Party/LwIP/src/core/ipv4/etharp.c ****      * new PBUF_RAM. See the definition of PBUF_NEEDS_COPY for details. */
1007:Middlewares/Third_Party/LwIP/src/core/ipv4/etharp.c ****     p = q;
1008:Middlewares/Third_Party/LwIP/src/core/ipv4/etharp.c ****     while (p) {
1009:Middlewares/Third_Party/LwIP/src/core/ipv4/etharp.c ****       LWIP_ASSERT("no packet queues allowed!", (p->len != p->tot_len) || (p->next == 0));
1010:Middlewares/Third_Party/LwIP/src/core/ipv4/etharp.c ****       if (PBUF_NEEDS_COPY(p)) {
ARM GAS  /var/folders/6z/bj4rvlwn0mvdnknwnn42jd6r0000gn/T//ccvcQ9wF.s 			page 33


1011:Middlewares/Third_Party/LwIP/src/core/ipv4/etharp.c ****         copy_needed = 1;
1012:Middlewares/Third_Party/LwIP/src/core/ipv4/etharp.c ****         break;
1013:Middlewares/Third_Party/LwIP/src/core/ipv4/etharp.c ****       }
1014:Middlewares/Third_Party/LwIP/src/core/ipv4/etharp.c ****       p = p->next;
1015:Middlewares/Third_Party/LwIP/src/core/ipv4/etharp.c ****     }
1016:Middlewares/Third_Party/LwIP/src/core/ipv4/etharp.c ****     if (copy_needed) {
1017:Middlewares/Third_Party/LwIP/src/core/ipv4/etharp.c ****       /* copy the whole packet into new pbufs */
1018:Middlewares/Third_Party/LwIP/src/core/ipv4/etharp.c ****       p = pbuf_clone(PBUF_LINK, PBUF_RAM, q);
1019:Middlewares/Third_Party/LwIP/src/core/ipv4/etharp.c ****     } else {
1020:Middlewares/Third_Party/LwIP/src/core/ipv4/etharp.c ****       /* referencing the old pbuf is enough */
1021:Middlewares/Third_Party/LwIP/src/core/ipv4/etharp.c ****       p = q;
1022:Middlewares/Third_Party/LwIP/src/core/ipv4/etharp.c ****       pbuf_ref(p);
1023:Middlewares/Third_Party/LwIP/src/core/ipv4/etharp.c ****     }
1024:Middlewares/Third_Party/LwIP/src/core/ipv4/etharp.c ****     /* packet could be taken over? */
1025:Middlewares/Third_Party/LwIP/src/core/ipv4/etharp.c ****     if (p != NULL) {
1026:Middlewares/Third_Party/LwIP/src/core/ipv4/etharp.c ****       /* queue packet ... */
1027:Middlewares/Third_Party/LwIP/src/core/ipv4/etharp.c **** #if ARP_QUEUEING
1028:Middlewares/Third_Party/LwIP/src/core/ipv4/etharp.c ****       struct etharp_q_entry *new_entry;
1029:Middlewares/Third_Party/LwIP/src/core/ipv4/etharp.c ****       /* allocate a new arp queue entry */
1030:Middlewares/Third_Party/LwIP/src/core/ipv4/etharp.c ****       new_entry = (struct etharp_q_entry *)memp_malloc(MEMP_ARP_QUEUE);
1031:Middlewares/Third_Party/LwIP/src/core/ipv4/etharp.c ****       if (new_entry != NULL) {
1032:Middlewares/Third_Party/LwIP/src/core/ipv4/etharp.c ****         unsigned int qlen = 0;
1033:Middlewares/Third_Party/LwIP/src/core/ipv4/etharp.c ****         new_entry->next = 0;
1034:Middlewares/Third_Party/LwIP/src/core/ipv4/etharp.c ****         new_entry->p = p;
1035:Middlewares/Third_Party/LwIP/src/core/ipv4/etharp.c ****         if (arp_table[i].q != NULL) {
1036:Middlewares/Third_Party/LwIP/src/core/ipv4/etharp.c ****           /* queue was already existent, append the new entry to the end */
1037:Middlewares/Third_Party/LwIP/src/core/ipv4/etharp.c ****           struct etharp_q_entry *r;
1038:Middlewares/Third_Party/LwIP/src/core/ipv4/etharp.c ****           r = arp_table[i].q;
1039:Middlewares/Third_Party/LwIP/src/core/ipv4/etharp.c ****           qlen++;
1040:Middlewares/Third_Party/LwIP/src/core/ipv4/etharp.c ****           while (r->next != NULL) {
1041:Middlewares/Third_Party/LwIP/src/core/ipv4/etharp.c ****             r = r->next;
1042:Middlewares/Third_Party/LwIP/src/core/ipv4/etharp.c ****             qlen++;
1043:Middlewares/Third_Party/LwIP/src/core/ipv4/etharp.c ****           }
1044:Middlewares/Third_Party/LwIP/src/core/ipv4/etharp.c ****           r->next = new_entry;
1045:Middlewares/Third_Party/LwIP/src/core/ipv4/etharp.c ****         } else {
1046:Middlewares/Third_Party/LwIP/src/core/ipv4/etharp.c ****           /* queue did not exist, first item in queue */
1047:Middlewares/Third_Party/LwIP/src/core/ipv4/etharp.c ****           arp_table[i].q = new_entry;
1048:Middlewares/Third_Party/LwIP/src/core/ipv4/etharp.c ****         }
1049:Middlewares/Third_Party/LwIP/src/core/ipv4/etharp.c **** #if ARP_QUEUE_LEN
1050:Middlewares/Third_Party/LwIP/src/core/ipv4/etharp.c ****         if (qlen >= ARP_QUEUE_LEN) {
1051:Middlewares/Third_Party/LwIP/src/core/ipv4/etharp.c ****           struct etharp_q_entry *old;
1052:Middlewares/Third_Party/LwIP/src/core/ipv4/etharp.c ****           old = arp_table[i].q;
1053:Middlewares/Third_Party/LwIP/src/core/ipv4/etharp.c ****           arp_table[i].q = arp_table[i].q->next;
1054:Middlewares/Third_Party/LwIP/src/core/ipv4/etharp.c ****           pbuf_free(old->p);
1055:Middlewares/Third_Party/LwIP/src/core/ipv4/etharp.c ****           memp_free(MEMP_ARP_QUEUE, old);
1056:Middlewares/Third_Party/LwIP/src/core/ipv4/etharp.c ****         }
1057:Middlewares/Third_Party/LwIP/src/core/ipv4/etharp.c **** #endif
1058:Middlewares/Third_Party/LwIP/src/core/ipv4/etharp.c ****         LWIP_DEBUGF(ETHARP_DEBUG | LWIP_DBG_TRACE, ("etharp_query: queued packet %p on ARP entry %"
1059:Middlewares/Third_Party/LwIP/src/core/ipv4/etharp.c ****         result = ERR_OK;
1060:Middlewares/Third_Party/LwIP/src/core/ipv4/etharp.c ****       } else {
1061:Middlewares/Third_Party/LwIP/src/core/ipv4/etharp.c ****         /* the pool MEMP_ARP_QUEUE is empty */
1062:Middlewares/Third_Party/LwIP/src/core/ipv4/etharp.c ****         pbuf_free(p);
1063:Middlewares/Third_Party/LwIP/src/core/ipv4/etharp.c ****         LWIP_DEBUGF(ETHARP_DEBUG | LWIP_DBG_TRACE, ("etharp_query: could not queue a copy of PBUF_R
1064:Middlewares/Third_Party/LwIP/src/core/ipv4/etharp.c ****         result = ERR_MEM;
1065:Middlewares/Third_Party/LwIP/src/core/ipv4/etharp.c ****       }
1066:Middlewares/Third_Party/LwIP/src/core/ipv4/etharp.c **** #else /* ARP_QUEUEING */
1067:Middlewares/Third_Party/LwIP/src/core/ipv4/etharp.c ****       /* always queue one packet per ARP request only, freeing a previously queued packet */
ARM GAS  /var/folders/6z/bj4rvlwn0mvdnknwnn42jd6r0000gn/T//ccvcQ9wF.s 			page 34


1068:Middlewares/Third_Party/LwIP/src/core/ipv4/etharp.c ****       if (arp_table[i].q != NULL) {
1069:Middlewares/Third_Party/LwIP/src/core/ipv4/etharp.c ****         LWIP_DEBUGF(ETHARP_DEBUG | LWIP_DBG_TRACE, ("etharp_query: dropped previously queued packet
1070:Middlewares/Third_Party/LwIP/src/core/ipv4/etharp.c ****         pbuf_free(arp_table[i].q);
1071:Middlewares/Third_Party/LwIP/src/core/ipv4/etharp.c ****       }
1072:Middlewares/Third_Party/LwIP/src/core/ipv4/etharp.c ****       arp_table[i].q = p;
1073:Middlewares/Third_Party/LwIP/src/core/ipv4/etharp.c ****       result = ERR_OK;
1074:Middlewares/Third_Party/LwIP/src/core/ipv4/etharp.c ****       LWIP_DEBUGF(ETHARP_DEBUG | LWIP_DBG_TRACE, ("etharp_query: queued packet %p on ARP entry %"U1
1075:Middlewares/Third_Party/LwIP/src/core/ipv4/etharp.c **** #endif /* ARP_QUEUEING */
1076:Middlewares/Third_Party/LwIP/src/core/ipv4/etharp.c ****     } else {
1077:Middlewares/Third_Party/LwIP/src/core/ipv4/etharp.c ****       ETHARP_STATS_INC(etharp.memerr);
1078:Middlewares/Third_Party/LwIP/src/core/ipv4/etharp.c ****       LWIP_DEBUGF(ETHARP_DEBUG | LWIP_DBG_TRACE, ("etharp_query: could not queue a copy of PBUF_REF
1079:Middlewares/Third_Party/LwIP/src/core/ipv4/etharp.c ****       result = ERR_MEM;
1080:Middlewares/Third_Party/LwIP/src/core/ipv4/etharp.c ****     }
1081:Middlewares/Third_Party/LwIP/src/core/ipv4/etharp.c ****   }
1082:Middlewares/Third_Party/LwIP/src/core/ipv4/etharp.c ****   return result;
1083:Middlewares/Third_Party/LwIP/src/core/ipv4/etharp.c **** }
1084:Middlewares/Third_Party/LwIP/src/core/ipv4/etharp.c **** 
1085:Middlewares/Third_Party/LwIP/src/core/ipv4/etharp.c **** /**
1086:Middlewares/Third_Party/LwIP/src/core/ipv4/etharp.c ****  * Send a raw ARP packet (opcode and all addresses can be modified)
1087:Middlewares/Third_Party/LwIP/src/core/ipv4/etharp.c ****  *
1088:Middlewares/Third_Party/LwIP/src/core/ipv4/etharp.c ****  * @param netif the lwip network interface on which to send the ARP packet
1089:Middlewares/Third_Party/LwIP/src/core/ipv4/etharp.c ****  * @param ethsrc_addr the source MAC address for the ethernet header
1090:Middlewares/Third_Party/LwIP/src/core/ipv4/etharp.c ****  * @param ethdst_addr the destination MAC address for the ethernet header
1091:Middlewares/Third_Party/LwIP/src/core/ipv4/etharp.c ****  * @param hwsrc_addr the source MAC address for the ARP protocol header
1092:Middlewares/Third_Party/LwIP/src/core/ipv4/etharp.c ****  * @param ipsrc_addr the source IP address for the ARP protocol header
1093:Middlewares/Third_Party/LwIP/src/core/ipv4/etharp.c ****  * @param hwdst_addr the destination MAC address for the ARP protocol header
1094:Middlewares/Third_Party/LwIP/src/core/ipv4/etharp.c ****  * @param ipdst_addr the destination IP address for the ARP protocol header
1095:Middlewares/Third_Party/LwIP/src/core/ipv4/etharp.c ****  * @param opcode the type of the ARP packet
1096:Middlewares/Third_Party/LwIP/src/core/ipv4/etharp.c ****  * @return ERR_OK if the ARP packet has been sent
1097:Middlewares/Third_Party/LwIP/src/core/ipv4/etharp.c ****  *         ERR_MEM if the ARP packet couldn't be allocated
1098:Middlewares/Third_Party/LwIP/src/core/ipv4/etharp.c ****  *         any other err_t on failure
1099:Middlewares/Third_Party/LwIP/src/core/ipv4/etharp.c ****  */
1100:Middlewares/Third_Party/LwIP/src/core/ipv4/etharp.c **** static err_t
1101:Middlewares/Third_Party/LwIP/src/core/ipv4/etharp.c **** etharp_raw(struct netif *netif, const struct eth_addr *ethsrc_addr,
1102:Middlewares/Third_Party/LwIP/src/core/ipv4/etharp.c ****            const struct eth_addr *ethdst_addr,
1103:Middlewares/Third_Party/LwIP/src/core/ipv4/etharp.c ****            const struct eth_addr *hwsrc_addr, const ip4_addr_t *ipsrc_addr,
1104:Middlewares/Third_Party/LwIP/src/core/ipv4/etharp.c ****            const struct eth_addr *hwdst_addr, const ip4_addr_t *ipdst_addr,
1105:Middlewares/Third_Party/LwIP/src/core/ipv4/etharp.c ****            const u16_t opcode)
1106:Middlewares/Third_Party/LwIP/src/core/ipv4/etharp.c **** {
 710              		.loc 1 1106 1 is_stmt 1 view -0
 711              		.cfi_startproc
 712              		@ args = 16, pretend = 0, frame = 0
 713              		@ frame_needed = 0, uses_anonymous_args = 0
 714              		.loc 1 1106 1 is_stmt 0 view .LVU196
 715 0000 2DE9F047 		push	{r4, r5, r6, r7, r8, r9, r10, lr}
 716              	.LCFI9:
 717              		.cfi_def_cfa_offset 32
 718              		.cfi_offset 4, -32
 719              		.cfi_offset 5, -28
 720              		.cfi_offset 6, -24
 721              		.cfi_offset 7, -20
 722              		.cfi_offset 8, -16
 723              		.cfi_offset 9, -12
 724              		.cfi_offset 10, -8
 725              		.cfi_offset 14, -4
 726 0004 82B0     		sub	sp, sp, #8
 727              	.LCFI10:
ARM GAS  /var/folders/6z/bj4rvlwn0mvdnknwnn42jd6r0000gn/T//ccvcQ9wF.s 			page 35


 728              		.cfi_def_cfa_offset 40
 729 0006 0F46     		mov	r7, r1
 730 0008 9046     		mov	r8, r2
 731 000a 1D46     		mov	r5, r3
 732 000c DDF82CA0 		ldr	r10, [sp, #44]
1107:Middlewares/Third_Party/LwIP/src/core/ipv4/etharp.c ****   struct pbuf *p;
 733              		.loc 1 1107 3 is_stmt 1 view .LVU197
1108:Middlewares/Third_Party/LwIP/src/core/ipv4/etharp.c ****   err_t result = ERR_OK;
 734              		.loc 1 1108 3 view .LVU198
 735              	.LVL67:
1109:Middlewares/Third_Party/LwIP/src/core/ipv4/etharp.c ****   struct etharp_hdr *hdr;
 736              		.loc 1 1109 3 view .LVU199
1110:Middlewares/Third_Party/LwIP/src/core/ipv4/etharp.c **** 
1111:Middlewares/Third_Party/LwIP/src/core/ipv4/etharp.c ****   LWIP_ASSERT("netif != NULL", netif != NULL);
 737              		.loc 1 1111 3 view .LVU200
 738              		.loc 1 1111 3 view .LVU201
 739 0010 8146     		mov	r9, r0
 740 0012 0028     		cmp	r0, #0
 741 0014 42D0     		beq	.L59
 742              	.LVL68:
 743              	.L53:
 744              		.loc 1 1111 3 view .LVU202
 745              		.loc 1 1111 3 view .LVU203
1112:Middlewares/Third_Party/LwIP/src/core/ipv4/etharp.c **** 
1113:Middlewares/Third_Party/LwIP/src/core/ipv4/etharp.c ****   /* allocate a pbuf for the outgoing ARP request packet */
1114:Middlewares/Third_Party/LwIP/src/core/ipv4/etharp.c ****   p = pbuf_alloc(PBUF_LINK, SIZEOF_ETHARP_HDR, PBUF_RAM);
 746              		.loc 1 1114 3 view .LVU204
 747              		.loc 1 1114 7 is_stmt 0 view .LVU205
 748 0016 4FF42072 		mov	r2, #640
 749 001a 1C21     		movs	r1, #28
 750 001c 0E20     		movs	r0, #14
 751 001e FFF7FEFF 		bl	pbuf_alloc
 752              	.LVL69:
1115:Middlewares/Third_Party/LwIP/src/core/ipv4/etharp.c ****   /* could allocate a pbuf for an ARP request? */
1116:Middlewares/Third_Party/LwIP/src/core/ipv4/etharp.c ****   if (p == NULL) {
 753              		.loc 1 1116 3 is_stmt 1 view .LVU206
 754              		.loc 1 1116 6 is_stmt 0 view .LVU207
 755 0022 0646     		mov	r6, r0
 756 0024 0028     		cmp	r0, #0
 757 0026 51D0     		beq	.L57
1117:Middlewares/Third_Party/LwIP/src/core/ipv4/etharp.c ****     LWIP_DEBUGF(ETHARP_DEBUG | LWIP_DBG_TRACE | LWIP_DBG_LEVEL_SERIOUS,
1118:Middlewares/Third_Party/LwIP/src/core/ipv4/etharp.c ****                 ("etharp_raw: could not allocate pbuf for ARP request.\n"));
1119:Middlewares/Third_Party/LwIP/src/core/ipv4/etharp.c ****     ETHARP_STATS_INC(etharp.memerr);
1120:Middlewares/Third_Party/LwIP/src/core/ipv4/etharp.c ****     return ERR_MEM;
1121:Middlewares/Third_Party/LwIP/src/core/ipv4/etharp.c ****   }
1122:Middlewares/Third_Party/LwIP/src/core/ipv4/etharp.c ****   LWIP_ASSERT("check that first pbuf can hold struct etharp_hdr",
 758              		.loc 1 1122 3 is_stmt 1 view .LVU208
 759              		.loc 1 1122 3 view .LVU209
 760 0028 4389     		ldrh	r3, [r0, #10]
 761 002a 1B2B     		cmp	r3, #27
 762 002c 3ED9     		bls	.L60
 763              	.LVL70:
 764              	.L55:
 765              		.loc 1 1122 3 view .LVU210
 766              		.loc 1 1122 3 view .LVU211
1123:Middlewares/Third_Party/LwIP/src/core/ipv4/etharp.c ****               (p->len >= SIZEOF_ETHARP_HDR));
1124:Middlewares/Third_Party/LwIP/src/core/ipv4/etharp.c **** 
ARM GAS  /var/folders/6z/bj4rvlwn0mvdnknwnn42jd6r0000gn/T//ccvcQ9wF.s 			page 36


1125:Middlewares/Third_Party/LwIP/src/core/ipv4/etharp.c ****   hdr = (struct etharp_hdr *)p->payload;
 767              		.loc 1 1125 3 view .LVU212
 768              		.loc 1 1125 7 is_stmt 0 view .LVU213
 769 002e 7468     		ldr	r4, [r6, #4]
 770              	.LVL71:
1126:Middlewares/Third_Party/LwIP/src/core/ipv4/etharp.c ****   LWIP_DEBUGF(ETHARP_DEBUG | LWIP_DBG_TRACE, ("etharp_raw: sending raw ARP packet.\n"));
 771              		.loc 1 1126 88 is_stmt 1 view .LVU214
1127:Middlewares/Third_Party/LwIP/src/core/ipv4/etharp.c ****   hdr->opcode = lwip_htons(opcode);
 772              		.loc 1 1127 3 view .LVU215
 773              		.loc 1 1127 17 is_stmt 0 view .LVU216
 774 0030 BDF83400 		ldrh	r0, [sp, #52]
 775 0034 FFF7FEFF 		bl	lwip_htons
 776              	.LVL72:
 777              		.loc 1 1127 15 discriminator 1 view .LVU217
 778 0038 E080     		strh	r0, [r4, #6]	@ unaligned
1128:Middlewares/Third_Party/LwIP/src/core/ipv4/etharp.c **** 
1129:Middlewares/Third_Party/LwIP/src/core/ipv4/etharp.c ****   LWIP_ASSERT("netif->hwaddr_len must be the same as ETH_HWADDR_LEN for etharp!",
 779              		.loc 1 1129 3 is_stmt 1 view .LVU218
 780              		.loc 1 1129 3 view .LVU219
 781 003a 99F82C30 		ldrb	r3, [r9, #44]	@ zero_extendqisi2
 782 003e 062B     		cmp	r3, #6
 783 0040 3CD1     		bne	.L61
 784              	.L56:
 785              		.loc 1 1129 3 view .LVU220
 786              		.loc 1 1129 3 view .LVU221
1130:Middlewares/Third_Party/LwIP/src/core/ipv4/etharp.c ****               (netif->hwaddr_len == ETH_HWADDR_LEN));
1131:Middlewares/Third_Party/LwIP/src/core/ipv4/etharp.c **** 
1132:Middlewares/Third_Party/LwIP/src/core/ipv4/etharp.c ****   /* Write the ARP MAC-Addresses */
1133:Middlewares/Third_Party/LwIP/src/core/ipv4/etharp.c ****   SMEMCPY(&hdr->shwaddr, hwsrc_addr, ETH_HWADDR_LEN);
 787              		.loc 1 1133 3 view .LVU222
 788 0042 2B68     		ldr	r3, [r5]	@ unaligned
 789 0044 A360     		str	r3, [r4, #8]	@ unaligned
 790 0046 AB88     		ldrh	r3, [r5, #4]	@ unaligned
 791 0048 A381     		strh	r3, [r4, #12]	@ unaligned
1134:Middlewares/Third_Party/LwIP/src/core/ipv4/etharp.c ****   SMEMCPY(&hdr->dhwaddr, hwdst_addr, ETH_HWADDR_LEN);
 792              		.loc 1 1134 3 view .LVU223
 793 004a DAF80030 		ldr	r3, [r10]	@ unaligned
 794 004e C4F81230 		str	r3, [r4, #18]	@ unaligned
 795 0052 BAF80430 		ldrh	r3, [r10, #4]	@ unaligned
 796 0056 E382     		strh	r3, [r4, #22]	@ unaligned
1135:Middlewares/Third_Party/LwIP/src/core/ipv4/etharp.c ****   /* Copy struct ip4_addr_wordaligned to aligned ip4_addr, to support compilers without
1136:Middlewares/Third_Party/LwIP/src/core/ipv4/etharp.c ****    * structure packing. */
1137:Middlewares/Third_Party/LwIP/src/core/ipv4/etharp.c ****   IPADDR_WORDALIGNED_COPY_FROM_IP4_ADDR_T(&hdr->sipaddr, ipsrc_addr);
 797              		.loc 1 1137 3 view .LVU224
 798 0058 0A9B     		ldr	r3, [sp, #40]
 799 005a 1B68     		ldr	r3, [r3]	@ unaligned
 800 005c C4F80E30 		str	r3, [r4, #14]	@ unaligned
1138:Middlewares/Third_Party/LwIP/src/core/ipv4/etharp.c ****   IPADDR_WORDALIGNED_COPY_FROM_IP4_ADDR_T(&hdr->dipaddr, ipdst_addr);
 801              		.loc 1 1138 3 view .LVU225
 802 0060 0C9B     		ldr	r3, [sp, #48]
 803 0062 1B68     		ldr	r3, [r3]	@ unaligned
 804 0064 A361     		str	r3, [r4, #24]	@ unaligned
1139:Middlewares/Third_Party/LwIP/src/core/ipv4/etharp.c **** 
1140:Middlewares/Third_Party/LwIP/src/core/ipv4/etharp.c ****   hdr->hwtype = PP_HTONS(LWIP_IANA_HWTYPE_ETHERNET);
 805              		.loc 1 1140 3 view .LVU226
 806              		.loc 1 1140 15 is_stmt 0 view .LVU227
 807 0066 0025     		movs	r5, #0
ARM GAS  /var/folders/6z/bj4rvlwn0mvdnknwnn42jd6r0000gn/T//ccvcQ9wF.s 			page 37


 808              	.LVL73:
 809              		.loc 1 1140 15 view .LVU228
 810 0068 2570     		strb	r5, [r4]
 811 006a 0123     		movs	r3, #1
 812 006c 6370     		strb	r3, [r4, #1]
1141:Middlewares/Third_Party/LwIP/src/core/ipv4/etharp.c ****   hdr->proto = PP_HTONS(ETHTYPE_IP);
 813              		.loc 1 1141 3 is_stmt 1 view .LVU229
 814              		.loc 1 1141 14 is_stmt 0 view .LVU230
 815 006e 0823     		movs	r3, #8
 816 0070 A370     		strb	r3, [r4, #2]
 817 0072 E570     		strb	r5, [r4, #3]
1142:Middlewares/Third_Party/LwIP/src/core/ipv4/etharp.c ****   /* set hwlen and protolen */
1143:Middlewares/Third_Party/LwIP/src/core/ipv4/etharp.c ****   hdr->hwlen = ETH_HWADDR_LEN;
 818              		.loc 1 1143 3 is_stmt 1 view .LVU231
 819              		.loc 1 1143 14 is_stmt 0 view .LVU232
 820 0074 0623     		movs	r3, #6
 821 0076 2371     		strb	r3, [r4, #4]
1144:Middlewares/Third_Party/LwIP/src/core/ipv4/etharp.c ****   hdr->protolen = sizeof(ip4_addr_t);
 822              		.loc 1 1144 3 is_stmt 1 view .LVU233
 823              		.loc 1 1144 17 is_stmt 0 view .LVU234
 824 0078 0423     		movs	r3, #4
 825 007a 6371     		strb	r3, [r4, #5]
1145:Middlewares/Third_Party/LwIP/src/core/ipv4/etharp.c **** 
1146:Middlewares/Third_Party/LwIP/src/core/ipv4/etharp.c ****   /* send ARP query */
1147:Middlewares/Third_Party/LwIP/src/core/ipv4/etharp.c **** #if LWIP_AUTOIP
1148:Middlewares/Third_Party/LwIP/src/core/ipv4/etharp.c ****   /* If we are using Link-Local, all ARP packets that contain a Link-Local
1149:Middlewares/Third_Party/LwIP/src/core/ipv4/etharp.c ****    * 'sender IP address' MUST be sent using link-layer broadcast instead of
1150:Middlewares/Third_Party/LwIP/src/core/ipv4/etharp.c ****    * link-layer unicast. (See RFC3927 Section 2.5, last paragraph) */
1151:Middlewares/Third_Party/LwIP/src/core/ipv4/etharp.c ****   if (ip4_addr_islinklocal(ipsrc_addr)) {
1152:Middlewares/Third_Party/LwIP/src/core/ipv4/etharp.c ****     ethernet_output(netif, p, ethsrc_addr, &ethbroadcast, ETHTYPE_ARP);
1153:Middlewares/Third_Party/LwIP/src/core/ipv4/etharp.c ****   } else
1154:Middlewares/Third_Party/LwIP/src/core/ipv4/etharp.c **** #endif /* LWIP_AUTOIP */
1155:Middlewares/Third_Party/LwIP/src/core/ipv4/etharp.c ****   {
1156:Middlewares/Third_Party/LwIP/src/core/ipv4/etharp.c ****     ethernet_output(netif, p, ethsrc_addr, ethdst_addr, ETHTYPE_ARP);
 826              		.loc 1 1156 5 is_stmt 1 view .LVU235
 827 007c 40F60603 		movw	r3, #2054
 828 0080 0093     		str	r3, [sp]
 829 0082 4346     		mov	r3, r8
 830 0084 3A46     		mov	r2, r7
 831 0086 3146     		mov	r1, r6
 832 0088 4846     		mov	r0, r9
 833 008a FFF7FEFF 		bl	ethernet_output
 834              	.LVL74:
1157:Middlewares/Third_Party/LwIP/src/core/ipv4/etharp.c ****   }
1158:Middlewares/Third_Party/LwIP/src/core/ipv4/etharp.c **** 
1159:Middlewares/Third_Party/LwIP/src/core/ipv4/etharp.c ****   ETHARP_STATS_INC(etharp.xmit);
 835              		.loc 1 1159 32 view .LVU236
1160:Middlewares/Third_Party/LwIP/src/core/ipv4/etharp.c ****   /* free ARP query packet */
1161:Middlewares/Third_Party/LwIP/src/core/ipv4/etharp.c ****   pbuf_free(p);
 836              		.loc 1 1161 3 view .LVU237
 837 008e 3046     		mov	r0, r6
 838 0090 FFF7FEFF 		bl	pbuf_free
 839              	.LVL75:
1162:Middlewares/Third_Party/LwIP/src/core/ipv4/etharp.c ****   p = NULL;
 840              		.loc 1 1162 3 view .LVU238
1163:Middlewares/Third_Party/LwIP/src/core/ipv4/etharp.c ****   /* could not allocate pbuf for ARP request */
1164:Middlewares/Third_Party/LwIP/src/core/ipv4/etharp.c **** 
ARM GAS  /var/folders/6z/bj4rvlwn0mvdnknwnn42jd6r0000gn/T//ccvcQ9wF.s 			page 38


1165:Middlewares/Third_Party/LwIP/src/core/ipv4/etharp.c ****   return result;
 841              		.loc 1 1165 3 view .LVU239
 842              		.loc 1 1165 10 is_stmt 0 view .LVU240
 843 0094 2846     		mov	r0, r5
 844              	.LVL76:
 845              	.L54:
1166:Middlewares/Third_Party/LwIP/src/core/ipv4/etharp.c **** }
 846              		.loc 1 1166 1 view .LVU241
 847 0096 02B0     		add	sp, sp, #8
 848              	.LCFI11:
 849              		.cfi_remember_state
 850              		.cfi_def_cfa_offset 32
 851              		@ sp needed
 852 0098 BDE8F087 		pop	{r4, r5, r6, r7, r8, r9, r10, pc}
 853              	.LVL77:
 854              	.L59:
 855              	.LCFI12:
 856              		.cfi_restore_state
1111:Middlewares/Third_Party/LwIP/src/core/ipv4/etharp.c **** 
 857              		.loc 1 1111 3 is_stmt 1 discriminator 1 view .LVU242
1111:Middlewares/Third_Party/LwIP/src/core/ipv4/etharp.c **** 
 858              		.loc 1 1111 3 discriminator 1 view .LVU243
 859 009c 0D4B     		ldr	r3, .L62
 860              	.LVL78:
1111:Middlewares/Third_Party/LwIP/src/core/ipv4/etharp.c **** 
 861              		.loc 1 1111 3 is_stmt 0 discriminator 1 view .LVU244
 862 009e 40F25742 		movw	r2, #1111
 863              	.LVL79:
1111:Middlewares/Third_Party/LwIP/src/core/ipv4/etharp.c **** 
 864              		.loc 1 1111 3 discriminator 1 view .LVU245
 865 00a2 0D49     		ldr	r1, .L62+4
 866              	.LVL80:
1111:Middlewares/Third_Party/LwIP/src/core/ipv4/etharp.c **** 
 867              		.loc 1 1111 3 discriminator 1 view .LVU246
 868 00a4 0D48     		ldr	r0, .L62+8
 869              	.LVL81:
1111:Middlewares/Third_Party/LwIP/src/core/ipv4/etharp.c **** 
 870              		.loc 1 1111 3 discriminator 1 view .LVU247
 871 00a6 FFF7FEFF 		bl	printf
 872              	.LVL82:
 873 00aa B4E7     		b	.L53
 874              	.LVL83:
 875              	.L60:
1122:Middlewares/Third_Party/LwIP/src/core/ipv4/etharp.c ****               (p->len >= SIZEOF_ETHARP_HDR));
 876              		.loc 1 1122 3 is_stmt 1 discriminator 1 view .LVU248
1122:Middlewares/Third_Party/LwIP/src/core/ipv4/etharp.c ****               (p->len >= SIZEOF_ETHARP_HDR));
 877              		.loc 1 1122 3 discriminator 1 view .LVU249
 878 00ac 094B     		ldr	r3, .L62
 879 00ae 40F26242 		movw	r2, #1122
 880 00b2 0B49     		ldr	r1, .L62+12
 881 00b4 0948     		ldr	r0, .L62+8
 882              	.LVL84:
1122:Middlewares/Third_Party/LwIP/src/core/ipv4/etharp.c ****               (p->len >= SIZEOF_ETHARP_HDR));
 883              		.loc 1 1122 3 is_stmt 0 discriminator 1 view .LVU250
 884 00b6 FFF7FEFF 		bl	printf
 885              	.LVL85:
 886 00ba B8E7     		b	.L55
ARM GAS  /var/folders/6z/bj4rvlwn0mvdnknwnn42jd6r0000gn/T//ccvcQ9wF.s 			page 39


 887              	.LVL86:
 888              	.L61:
1129:Middlewares/Third_Party/LwIP/src/core/ipv4/etharp.c ****               (netif->hwaddr_len == ETH_HWADDR_LEN));
 889              		.loc 1 1129 3 is_stmt 1 discriminator 1 view .LVU251
1129:Middlewares/Third_Party/LwIP/src/core/ipv4/etharp.c ****               (netif->hwaddr_len == ETH_HWADDR_LEN));
 890              		.loc 1 1129 3 discriminator 1 view .LVU252
 891 00bc 054B     		ldr	r3, .L62
 892 00be 40F26942 		movw	r2, #1129
 893 00c2 0849     		ldr	r1, .L62+16
 894 00c4 0548     		ldr	r0, .L62+8
 895 00c6 FFF7FEFF 		bl	printf
 896              	.LVL87:
 897 00ca BAE7     		b	.L56
 898              	.LVL88:
 899              	.L57:
1120:Middlewares/Third_Party/LwIP/src/core/ipv4/etharp.c ****   }
 900              		.loc 1 1120 12 is_stmt 0 view .LVU253
 901 00cc 4FF0FF30 		mov	r0, #-1
 902              	.LVL89:
1120:Middlewares/Third_Party/LwIP/src/core/ipv4/etharp.c ****   }
 903              		.loc 1 1120 12 view .LVU254
 904 00d0 E1E7     		b	.L54
 905              	.L63:
 906 00d2 00BF     		.align	2
 907              	.L62:
 908 00d4 00000000 		.word	.LC0
 909 00d8 00000000 		.word	.LC6
 910 00dc 4C000000 		.word	.LC2
 911 00e0 10000000 		.word	.LC7
 912 00e4 44000000 		.word	.LC8
 913              		.cfi_endproc
 914              	.LFE181:
 916              		.section	.text.etharp_request_dst,"ax",%progbits
 917              		.align	1
 918              		.syntax unified
 919              		.thumb
 920              		.thumb_func
 922              	etharp_request_dst:
 923              	.LVL90:
 924              	.LFB182:
1167:Middlewares/Third_Party/LwIP/src/core/ipv4/etharp.c **** 
1168:Middlewares/Third_Party/LwIP/src/core/ipv4/etharp.c **** /**
1169:Middlewares/Third_Party/LwIP/src/core/ipv4/etharp.c ****  * Send an ARP request packet asking for ipaddr to a specific eth address.
1170:Middlewares/Third_Party/LwIP/src/core/ipv4/etharp.c ****  * Used to send unicast request to refresh the ARP table just before an entry
1171:Middlewares/Third_Party/LwIP/src/core/ipv4/etharp.c ****  * times out
1172:Middlewares/Third_Party/LwIP/src/core/ipv4/etharp.c ****  *
1173:Middlewares/Third_Party/LwIP/src/core/ipv4/etharp.c ****  * @param netif the lwip network interface on which to send the request
1174:Middlewares/Third_Party/LwIP/src/core/ipv4/etharp.c ****  * @param ipaddr the IP address for which to ask
1175:Middlewares/Third_Party/LwIP/src/core/ipv4/etharp.c ****  * @param hw_dst_addr the ethernet address to send this packet to
1176:Middlewares/Third_Party/LwIP/src/core/ipv4/etharp.c ****  * @return ERR_OK if the request has been sent
1177:Middlewares/Third_Party/LwIP/src/core/ipv4/etharp.c ****  *         ERR_MEM if the ARP packet couldn't be allocated
1178:Middlewares/Third_Party/LwIP/src/core/ipv4/etharp.c ****  *         any other err_t on failure
1179:Middlewares/Third_Party/LwIP/src/core/ipv4/etharp.c ****  */
1180:Middlewares/Third_Party/LwIP/src/core/ipv4/etharp.c **** static err_t
1181:Middlewares/Third_Party/LwIP/src/core/ipv4/etharp.c **** etharp_request_dst(struct netif *netif, const ip4_addr_t *ipaddr, const struct eth_addr *hw_dst_add
1182:Middlewares/Third_Party/LwIP/src/core/ipv4/etharp.c **** {
 925              		.loc 1 1182 1 is_stmt 1 view -0
ARM GAS  /var/folders/6z/bj4rvlwn0mvdnknwnn42jd6r0000gn/T//ccvcQ9wF.s 			page 40


 926              		.cfi_startproc
 927              		@ args = 0, pretend = 0, frame = 0
 928              		@ frame_needed = 0, uses_anonymous_args = 0
 929              		.loc 1 1182 1 is_stmt 0 view .LVU256
 930 0000 30B5     		push	{r4, r5, lr}
 931              	.LCFI13:
 932              		.cfi_def_cfa_offset 12
 933              		.cfi_offset 4, -12
 934              		.cfi_offset 5, -8
 935              		.cfi_offset 14, -4
 936 0002 85B0     		sub	sp, sp, #20
 937              	.LCFI14:
 938              		.cfi_def_cfa_offset 32
1183:Middlewares/Third_Party/LwIP/src/core/ipv4/etharp.c ****   return etharp_raw(netif, (struct eth_addr *)netif->hwaddr, hw_dst_addr,
 939              		.loc 1 1183 3 is_stmt 1 view .LVU257
 940              		.loc 1 1183 47 is_stmt 0 view .LVU258
 941 0004 00F12603 		add	r3, r0, #38
1184:Middlewares/Third_Party/LwIP/src/core/ipv4/etharp.c ****                     (struct eth_addr *)netif->hwaddr, netif_ip4_addr(netif), &ethzero,
 942              		.loc 1 1184 55 view .LVU259
 943 0008 041D     		adds	r4, r0, #4
1183:Middlewares/Third_Party/LwIP/src/core/ipv4/etharp.c ****   return etharp_raw(netif, (struct eth_addr *)netif->hwaddr, hw_dst_addr,
 944              		.loc 1 1183 10 view .LVU260
 945 000a 0125     		movs	r5, #1
 946 000c 0395     		str	r5, [sp, #12]
 947 000e 0291     		str	r1, [sp, #8]
 948 0010 0349     		ldr	r1, .L66
 949              	.LVL91:
1183:Middlewares/Third_Party/LwIP/src/core/ipv4/etharp.c ****   return etharp_raw(netif, (struct eth_addr *)netif->hwaddr, hw_dst_addr,
 950              		.loc 1 1183 10 view .LVU261
 951 0012 0191     		str	r1, [sp, #4]
 952 0014 0094     		str	r4, [sp]
 953 0016 1946     		mov	r1, r3
 954 0018 FFF7FEFF 		bl	etharp_raw
 955              	.LVL92:
1185:Middlewares/Third_Party/LwIP/src/core/ipv4/etharp.c ****                     ipaddr, ARP_REQUEST);
1186:Middlewares/Third_Party/LwIP/src/core/ipv4/etharp.c **** }
 956              		.loc 1 1186 1 view .LVU262
 957 001c 05B0     		add	sp, sp, #20
 958              	.LCFI15:
 959              		.cfi_def_cfa_offset 12
 960              		@ sp needed
 961 001e 30BD     		pop	{r4, r5, pc}
 962              	.LVL93:
 963              	.L67:
 964              		.loc 1 1186 1 view .LVU263
 965              		.align	2
 966              	.L66:
 967 0020 00000000 		.word	ethzero
 968              		.cfi_endproc
 969              	.LFE182:
 971              		.section	.text.etharp_cleanup_netif,"ax",%progbits
 972              		.align	1
 973              		.global	etharp_cleanup_netif
 974              		.syntax unified
 975              		.thumb
 976              		.thumb_func
 978              	etharp_cleanup_netif:
ARM GAS  /var/folders/6z/bj4rvlwn0mvdnknwnn42jd6r0000gn/T//ccvcQ9wF.s 			page 41


 979              	.LVL94:
 980              	.LFB174:
 560:Middlewares/Third_Party/LwIP/src/core/ipv4/etharp.c ****   int i;
 981              		.loc 1 560 1 is_stmt 1 view -0
 982              		.cfi_startproc
 983              		@ args = 0, pretend = 0, frame = 0
 984              		@ frame_needed = 0, uses_anonymous_args = 0
 560:Middlewares/Third_Party/LwIP/src/core/ipv4/etharp.c ****   int i;
 985              		.loc 1 560 1 is_stmt 0 view .LVU265
 986 0000 38B5     		push	{r3, r4, r5, lr}
 987              	.LCFI16:
 988              		.cfi_def_cfa_offset 16
 989              		.cfi_offset 3, -16
 990              		.cfi_offset 4, -12
 991              		.cfi_offset 5, -8
 992              		.cfi_offset 14, -4
 993 0002 0546     		mov	r5, r0
 561:Middlewares/Third_Party/LwIP/src/core/ipv4/etharp.c **** 
 994              		.loc 1 561 3 is_stmt 1 view .LVU266
 563:Middlewares/Third_Party/LwIP/src/core/ipv4/etharp.c ****     u8_t state = arp_table[i].state;
 995              		.loc 1 563 3 view .LVU267
 996              	.LVL95:
 563:Middlewares/Third_Party/LwIP/src/core/ipv4/etharp.c ****     u8_t state = arp_table[i].state;
 997              		.loc 1 563 10 is_stmt 0 view .LVU268
 998 0004 0024     		movs	r4, #0
 563:Middlewares/Third_Party/LwIP/src/core/ipv4/etharp.c ****     u8_t state = arp_table[i].state;
 999              		.loc 1 563 3 view .LVU269
 1000 0006 00E0     		b	.L69
 1001              	.LVL96:
 1002              	.L70:
 563:Middlewares/Third_Party/LwIP/src/core/ipv4/etharp.c ****     u8_t state = arp_table[i].state;
 1003              		.loc 1 563 35 is_stmt 1 discriminator 2 view .LVU270
 1004 0008 0134     		adds	r4, r4, #1
 1005              	.LVL97:
 1006              	.L69:
 563:Middlewares/Third_Party/LwIP/src/core/ipv4/etharp.c ****     u8_t state = arp_table[i].state;
 1007              		.loc 1 563 17 discriminator 1 view .LVU271
 1008 000a 092C     		cmp	r4, #9
 1009 000c 11DC     		bgt	.L73
 1010              	.LBB6:
 564:Middlewares/Third_Party/LwIP/src/core/ipv4/etharp.c ****     if ((state != ETHARP_STATE_EMPTY) && (arp_table[i].netif == netif)) {
 1011              		.loc 1 564 5 view .LVU272
 564:Middlewares/Third_Party/LwIP/src/core/ipv4/etharp.c ****     if ((state != ETHARP_STATE_EMPTY) && (arp_table[i].netif == netif)) {
 1012              		.loc 1 564 10 is_stmt 0 view .LVU273
 1013 000e 04EB4402 		add	r2, r4, r4, lsl #1
 1014 0012 084B     		ldr	r3, .L74
 1015 0014 03EBC203 		add	r3, r3, r2, lsl #3
 1016 0018 1B7D     		ldrb	r3, [r3, #20]	@ zero_extendqisi2
 1017              	.LVL98:
 565:Middlewares/Third_Party/LwIP/src/core/ipv4/etharp.c ****       etharp_free_entry(i);
 1018              		.loc 1 565 5 is_stmt 1 view .LVU274
 565:Middlewares/Third_Party/LwIP/src/core/ipv4/etharp.c ****       etharp_free_entry(i);
 1019              		.loc 1 565 8 is_stmt 0 view .LVU275
 1020 001a 002B     		cmp	r3, #0
 1021 001c F4D0     		beq	.L70
 565:Middlewares/Third_Party/LwIP/src/core/ipv4/etharp.c ****       etharp_free_entry(i);
 1022              		.loc 1 565 55 discriminator 1 view .LVU276
ARM GAS  /var/folders/6z/bj4rvlwn0mvdnknwnn42jd6r0000gn/T//ccvcQ9wF.s 			page 42


 1023 001e 054B     		ldr	r3, .L74
 1024              	.LVL99:
 565:Middlewares/Third_Party/LwIP/src/core/ipv4/etharp.c ****       etharp_free_entry(i);
 1025              		.loc 1 565 55 discriminator 1 view .LVU277
 1026 0020 03EBC203 		add	r3, r3, r2, lsl #3
 1027              	.LVL100:
 565:Middlewares/Third_Party/LwIP/src/core/ipv4/etharp.c ****       etharp_free_entry(i);
 1028              		.loc 1 565 55 discriminator 1 view .LVU278
 1029 0024 9B68     		ldr	r3, [r3, #8]
 1030              	.LVL101:
 565:Middlewares/Third_Party/LwIP/src/core/ipv4/etharp.c ****       etharp_free_entry(i);
 1031              		.loc 1 565 39 discriminator 1 view .LVU279
 1032 0026 AB42     		cmp	r3, r5
 1033 0028 EED1     		bne	.L70
 566:Middlewares/Third_Party/LwIP/src/core/ipv4/etharp.c ****     }
 1034              		.loc 1 566 7 is_stmt 1 view .LVU280
 1035 002a 2046     		mov	r0, r4
 1036 002c FFF7FEFF 		bl	etharp_free_entry
 1037              	.LVL102:
 566:Middlewares/Third_Party/LwIP/src/core/ipv4/etharp.c ****     }
 1038              		.loc 1 566 7 is_stmt 0 view .LVU281
 1039 0030 EAE7     		b	.L70
 1040              	.LVL103:
 1041              	.L73:
 566:Middlewares/Third_Party/LwIP/src/core/ipv4/etharp.c ****     }
 1042              		.loc 1 566 7 view .LVU282
 1043              	.LBE6:
 569:Middlewares/Third_Party/LwIP/src/core/ipv4/etharp.c **** 
 1044              		.loc 1 569 1 view .LVU283
 1045 0032 38BD     		pop	{r3, r4, r5, pc}
 1046              	.LVL104:
 1047              	.L75:
 569:Middlewares/Third_Party/LwIP/src/core/ipv4/etharp.c **** 
 1048              		.loc 1 569 1 view .LVU284
 1049              		.align	2
 1050              	.L74:
 1051 0034 00000000 		.word	arp_table
 1052              		.cfi_endproc
 1053              	.LFE174:
 1055              		.section	.rodata.etharp_find_addr.str1.4,"aMS",%progbits,1
 1056              		.align	2
 1057              	.LC9:
 1058 0000 6574685F 		.ascii	"eth_ret != NULL && ip_ret != NULL\000"
 1058      72657420 
 1058      213D204E 
 1058      554C4C20 
 1058      26262069 
 1059              		.section	.text.etharp_find_addr,"ax",%progbits
 1060              		.align	1
 1061              		.global	etharp_find_addr
 1062              		.syntax unified
 1063              		.thumb
 1064              		.thumb_func
 1066              	etharp_find_addr:
 1067              	.LVL105:
 1068              	.LFB175:
 585:Middlewares/Third_Party/LwIP/src/core/ipv4/etharp.c ****   s16_t i;
ARM GAS  /var/folders/6z/bj4rvlwn0mvdnknwnn42jd6r0000gn/T//ccvcQ9wF.s 			page 43


 1069              		.loc 1 585 1 is_stmt 1 view -0
 1070              		.cfi_startproc
 1071              		@ args = 0, pretend = 0, frame = 0
 1072              		@ frame_needed = 0, uses_anonymous_args = 0
 585:Middlewares/Third_Party/LwIP/src/core/ipv4/etharp.c ****   s16_t i;
 1073              		.loc 1 585 1 is_stmt 0 view .LVU286
 1074 0000 F8B5     		push	{r3, r4, r5, r6, r7, lr}
 1075              	.LCFI17:
 1076              		.cfi_def_cfa_offset 24
 1077              		.cfi_offset 3, -24
 1078              		.cfi_offset 4, -20
 1079              		.cfi_offset 5, -16
 1080              		.cfi_offset 6, -12
 1081              		.cfi_offset 7, -8
 1082              		.cfi_offset 14, -4
 1083 0002 0746     		mov	r7, r0
 1084 0004 0C46     		mov	r4, r1
 1085 0006 1646     		mov	r6, r2
 1086 0008 1D46     		mov	r5, r3
 586:Middlewares/Third_Party/LwIP/src/core/ipv4/etharp.c **** 
 1087              		.loc 1 586 3 is_stmt 1 view .LVU287
 588:Middlewares/Third_Party/LwIP/src/core/ipv4/etharp.c ****               eth_ret != NULL && ip_ret != NULL);
 1088              		.loc 1 588 3 view .LVU288
 588:Middlewares/Third_Party/LwIP/src/core/ipv4/etharp.c ****               eth_ret != NULL && ip_ret != NULL);
 1089              		.loc 1 588 3 view .LVU289
 1090 000a 002B     		cmp	r3, #0
 1091 000c 18BF     		it	ne
 1092 000e 002A     		cmpne	r2, #0
 1093 0010 1AD0     		beq	.L82
 1094              	.LVL106:
 1095              	.L77:
 588:Middlewares/Third_Party/LwIP/src/core/ipv4/etharp.c ****               eth_ret != NULL && ip_ret != NULL);
 1096              		.loc 1 588 3 view .LVU290
 588:Middlewares/Third_Party/LwIP/src/core/ipv4/etharp.c ****               eth_ret != NULL && ip_ret != NULL);
 1097              		.loc 1 588 3 view .LVU291
 591:Middlewares/Third_Party/LwIP/src/core/ipv4/etharp.c **** 
 1098              		.loc 1 591 3 view .LVU292
 593:Middlewares/Third_Party/LwIP/src/core/ipv4/etharp.c ****   if ((i >= 0) && (arp_table[i].state >= ETHARP_STATE_STABLE)) {
 1099              		.loc 1 593 3 view .LVU293
 593:Middlewares/Third_Party/LwIP/src/core/ipv4/etharp.c ****   if ((i >= 0) && (arp_table[i].state >= ETHARP_STATE_STABLE)) {
 1100              		.loc 1 593 7 is_stmt 0 view .LVU294
 1101 0012 3A46     		mov	r2, r7
 1102 0014 0221     		movs	r1, #2
 1103 0016 2046     		mov	r0, r4
 1104 0018 FFF7FEFF 		bl	etharp_find_entry
 1105              	.LVL107:
 594:Middlewares/Third_Party/LwIP/src/core/ipv4/etharp.c ****     *eth_ret = &arp_table[i].ethaddr;
 1106              		.loc 1 594 3 is_stmt 1 view .LVU295
 594:Middlewares/Third_Party/LwIP/src/core/ipv4/etharp.c ****     *eth_ret = &arp_table[i].ethaddr;
 1107              		.loc 1 594 6 is_stmt 0 view .LVU296
 1108 001c 011E     		subs	r1, r0, #0
 1109 001e 1BDB     		blt	.L79
 594:Middlewares/Third_Party/LwIP/src/core/ipv4/etharp.c ****     *eth_ret = &arp_table[i].ethaddr;
 1110              		.loc 1 594 32 discriminator 1 view .LVU297
 1111 0020 0846     		mov	r0, r1
 594:Middlewares/Third_Party/LwIP/src/core/ipv4/etharp.c ****     *eth_ret = &arp_table[i].ethaddr;
 1112              		.loc 1 594 32 discriminator 1 view .LVU298
ARM GAS  /var/folders/6z/bj4rvlwn0mvdnknwnn42jd6r0000gn/T//ccvcQ9wF.s 			page 44


 1113 0022 01EB4102 		add	r2, r1, r1, lsl #1
 1114 0026 0F4B     		ldr	r3, .L83
 1115 0028 03EBC203 		add	r3, r3, r2, lsl #3
 1116 002c 1B7D     		ldrb	r3, [r3, #20]	@ zero_extendqisi2
 594:Middlewares/Third_Party/LwIP/src/core/ipv4/etharp.c ****     *eth_ret = &arp_table[i].ethaddr;
 1117              		.loc 1 594 16 discriminator 1 view .LVU299
 1118 002e 012B     		cmp	r3, #1
 1119 0030 15D9     		bls	.L80
 595:Middlewares/Third_Party/LwIP/src/core/ipv4/etharp.c ****     *ip_ret = &arp_table[i].ipaddr;
 1120              		.loc 1 595 5 is_stmt 1 view .LVU300
 595:Middlewares/Third_Party/LwIP/src/core/ipv4/etharp.c ****     *ip_ret = &arp_table[i].ipaddr;
 1121              		.loc 1 595 16 is_stmt 0 view .LVU301
 1122 0032 D400     		lsls	r4, r2, #3
 1123              	.LVL108:
 595:Middlewares/Third_Party/LwIP/src/core/ipv4/etharp.c ****     *ip_ret = &arp_table[i].ipaddr;
 1124              		.loc 1 595 16 view .LVU302
 1125 0034 0834     		adds	r4, r4, #8
 1126 0036 0B4B     		ldr	r3, .L83
 1127 0038 1C44     		add	r4, r4, r3
 1128 003a 0434     		adds	r4, r4, #4
 595:Middlewares/Third_Party/LwIP/src/core/ipv4/etharp.c ****     *ip_ret = &arp_table[i].ipaddr;
 1129              		.loc 1 595 14 view .LVU303
 1130 003c 3460     		str	r4, [r6]
 596:Middlewares/Third_Party/LwIP/src/core/ipv4/etharp.c ****     return i;
 1131              		.loc 1 596 5 is_stmt 1 view .LVU304
 596:Middlewares/Third_Party/LwIP/src/core/ipv4/etharp.c ****     return i;
 1132              		.loc 1 596 15 is_stmt 0 view .LVU305
 1133 003e 03EBC203 		add	r3, r3, r2, lsl #3
 1134 0042 0433     		adds	r3, r3, #4
 596:Middlewares/Third_Party/LwIP/src/core/ipv4/etharp.c ****     return i;
 1135              		.loc 1 596 13 view .LVU306
 1136 0044 2B60     		str	r3, [r5]
 597:Middlewares/Third_Party/LwIP/src/core/ipv4/etharp.c ****   }
 1137              		.loc 1 597 5 is_stmt 1 view .LVU307
 1138              	.LVL109:
 1139              	.L76:
 600:Middlewares/Third_Party/LwIP/src/core/ipv4/etharp.c **** 
 1140              		.loc 1 600 1 is_stmt 0 view .LVU308
 1141 0046 F8BD     		pop	{r3, r4, r5, r6, r7, pc}
 1142              	.LVL110:
 1143              	.L82:
 588:Middlewares/Third_Party/LwIP/src/core/ipv4/etharp.c ****               eth_ret != NULL && ip_ret != NULL);
 1144              		.loc 1 588 3 is_stmt 1 discriminator 1 view .LVU309
 588:Middlewares/Third_Party/LwIP/src/core/ipv4/etharp.c ****               eth_ret != NULL && ip_ret != NULL);
 1145              		.loc 1 588 3 discriminator 1 view .LVU310
 1146 0048 074B     		ldr	r3, .L83+4
 1147              	.LVL111:
 588:Middlewares/Third_Party/LwIP/src/core/ipv4/etharp.c ****               eth_ret != NULL && ip_ret != NULL);
 1148              		.loc 1 588 3 is_stmt 0 discriminator 1 view .LVU311
 1149 004a 4FF41372 		mov	r2, #588
 1150              	.LVL112:
 588:Middlewares/Third_Party/LwIP/src/core/ipv4/etharp.c ****               eth_ret != NULL && ip_ret != NULL);
 1151              		.loc 1 588 3 discriminator 1 view .LVU312
 1152 004e 0749     		ldr	r1, .L83+8
 1153              	.LVL113:
 588:Middlewares/Third_Party/LwIP/src/core/ipv4/etharp.c ****               eth_ret != NULL && ip_ret != NULL);
 1154              		.loc 1 588 3 discriminator 1 view .LVU313
ARM GAS  /var/folders/6z/bj4rvlwn0mvdnknwnn42jd6r0000gn/T//ccvcQ9wF.s 			page 45


 1155 0050 0748     		ldr	r0, .L83+12
 1156              	.LVL114:
 588:Middlewares/Third_Party/LwIP/src/core/ipv4/etharp.c ****               eth_ret != NULL && ip_ret != NULL);
 1157              		.loc 1 588 3 discriminator 1 view .LVU314
 1158 0052 FFF7FEFF 		bl	printf
 1159              	.LVL115:
 1160 0056 DCE7     		b	.L77
 1161              	.LVL116:
 1162              	.L79:
 599:Middlewares/Third_Party/LwIP/src/core/ipv4/etharp.c **** }
 1163              		.loc 1 599 10 view .LVU315
 1164 0058 4FF0FF30 		mov	r0, #-1
 1165              	.LVL117:
 599:Middlewares/Third_Party/LwIP/src/core/ipv4/etharp.c **** }
 1166              		.loc 1 599 10 view .LVU316
 1167 005c F3E7     		b	.L76
 1168              	.LVL118:
 1169              	.L80:
 599:Middlewares/Third_Party/LwIP/src/core/ipv4/etharp.c **** }
 1170              		.loc 1 599 10 view .LVU317
 1171 005e 4FF0FF30 		mov	r0, #-1
 1172              	.LVL119:
 599:Middlewares/Third_Party/LwIP/src/core/ipv4/etharp.c **** }
 1173              		.loc 1 599 10 view .LVU318
 1174 0062 F0E7     		b	.L76
 1175              	.L84:
 1176              		.align	2
 1177              	.L83:
 1178 0064 00000000 		.word	arp_table
 1179 0068 00000000 		.word	.LC0
 1180 006c 00000000 		.word	.LC9
 1181 0070 4C000000 		.word	.LC2
 1182              		.cfi_endproc
 1183              	.LFE175:
 1185              		.section	.rodata.etharp_get_entry.str1.4,"aMS",%progbits,1
 1186              		.align	2
 1187              	.LC10:
 1188 0000 69706164 		.ascii	"ipaddr != NULL\000"
 1188      64722021 
 1188      3D204E55 
 1188      4C4C00
 1189 000f 00       		.align	2
 1190              	.LC11:
 1191 0010 6574685F 		.ascii	"eth_ret != NULL\000"
 1191      72657420 
 1191      213D204E 
 1191      554C4C00 
 1192              		.section	.text.etharp_get_entry,"ax",%progbits
 1193              		.align	1
 1194              		.global	etharp_get_entry
 1195              		.syntax unified
 1196              		.thumb
 1197              		.thumb_func
 1199              	etharp_get_entry:
 1200              	.LVL120:
 1201              	.LFB176:
 613:Middlewares/Third_Party/LwIP/src/core/ipv4/etharp.c ****   LWIP_ASSERT("ipaddr != NULL", ipaddr != NULL);
ARM GAS  /var/folders/6z/bj4rvlwn0mvdnknwnn42jd6r0000gn/T//ccvcQ9wF.s 			page 46


 1202              		.loc 1 613 1 is_stmt 1 view -0
 1203              		.cfi_startproc
 1204              		@ args = 0, pretend = 0, frame = 0
 1205              		@ frame_needed = 0, uses_anonymous_args = 0
 613:Middlewares/Third_Party/LwIP/src/core/ipv4/etharp.c ****   LWIP_ASSERT("ipaddr != NULL", ipaddr != NULL);
 1206              		.loc 1 613 1 is_stmt 0 view .LVU320
 1207 0000 F8B5     		push	{r3, r4, r5, r6, r7, lr}
 1208              	.LCFI18:
 1209              		.cfi_def_cfa_offset 24
 1210              		.cfi_offset 3, -24
 1211              		.cfi_offset 4, -20
 1212              		.cfi_offset 5, -16
 1213              		.cfi_offset 6, -12
 1214              		.cfi_offset 7, -8
 1215              		.cfi_offset 14, -4
 1216 0002 0446     		mov	r4, r0
 1217 0004 1646     		mov	r6, r2
 1218 0006 1D46     		mov	r5, r3
 614:Middlewares/Third_Party/LwIP/src/core/ipv4/etharp.c ****   LWIP_ASSERT("netif != NULL", netif != NULL);
 1219              		.loc 1 614 3 is_stmt 1 view .LVU321
 614:Middlewares/Third_Party/LwIP/src/core/ipv4/etharp.c ****   LWIP_ASSERT("netif != NULL", netif != NULL);
 1220              		.loc 1 614 3 view .LVU322
 1221 0008 0F46     		mov	r7, r1
 1222 000a D9B1     		cbz	r1, .L93
 1223              	.LVL121:
 1224              	.L86:
 614:Middlewares/Third_Party/LwIP/src/core/ipv4/etharp.c ****   LWIP_ASSERT("netif != NULL", netif != NULL);
 1225              		.loc 1 614 3 view .LVU323
 614:Middlewares/Third_Party/LwIP/src/core/ipv4/etharp.c ****   LWIP_ASSERT("netif != NULL", netif != NULL);
 1226              		.loc 1 614 3 view .LVU324
 615:Middlewares/Third_Party/LwIP/src/core/ipv4/etharp.c ****   LWIP_ASSERT("eth_ret != NULL", eth_ret != NULL);
 1227              		.loc 1 615 3 view .LVU325
 615:Middlewares/Third_Party/LwIP/src/core/ipv4/etharp.c ****   LWIP_ASSERT("eth_ret != NULL", eth_ret != NULL);
 1228              		.loc 1 615 3 view .LVU326
 1229 000c 16B3     		cbz	r6, .L94
 1230              	.L87:
 615:Middlewares/Third_Party/LwIP/src/core/ipv4/etharp.c ****   LWIP_ASSERT("eth_ret != NULL", eth_ret != NULL);
 1231              		.loc 1 615 3 view .LVU327
 615:Middlewares/Third_Party/LwIP/src/core/ipv4/etharp.c ****   LWIP_ASSERT("eth_ret != NULL", eth_ret != NULL);
 1232              		.loc 1 615 3 view .LVU328
 616:Middlewares/Third_Party/LwIP/src/core/ipv4/etharp.c **** 
 1233              		.loc 1 616 3 view .LVU329
 616:Middlewares/Third_Party/LwIP/src/core/ipv4/etharp.c **** 
 1234              		.loc 1 616 3 view .LVU330
 1235 000e 4DB3     		cbz	r5, .L95
 1236              	.L88:
 616:Middlewares/Third_Party/LwIP/src/core/ipv4/etharp.c **** 
 1237              		.loc 1 616 3 view .LVU331
 616:Middlewares/Third_Party/LwIP/src/core/ipv4/etharp.c **** 
 1238              		.loc 1 616 3 view .LVU332
 618:Middlewares/Third_Party/LwIP/src/core/ipv4/etharp.c ****     *ipaddr  = &arp_table[i].ipaddr;
 1239              		.loc 1 618 3 view .LVU333
 618:Middlewares/Third_Party/LwIP/src/core/ipv4/etharp.c ****     *ipaddr  = &arp_table[i].ipaddr;
 1240              		.loc 1 618 6 is_stmt 0 view .LVU334
 1241 0010 092C     		cmp	r4, #9
 1242 0012 2FD8     		bhi	.L90
 618:Middlewares/Third_Party/LwIP/src/core/ipv4/etharp.c ****     *ipaddr  = &arp_table[i].ipaddr;
ARM GAS  /var/folders/6z/bj4rvlwn0mvdnknwnn42jd6r0000gn/T//ccvcQ9wF.s 			page 47


 1243              		.loc 1 618 44 discriminator 1 view .LVU335
 1244 0014 04EB4402 		add	r2, r4, r4, lsl #1
 1245 0018 184B     		ldr	r3, .L96
 1246 001a 03EBC203 		add	r3, r3, r2, lsl #3
 1247 001e 1B7D     		ldrb	r3, [r3, #20]	@ zero_extendqisi2
 618:Middlewares/Third_Party/LwIP/src/core/ipv4/etharp.c ****     *ipaddr  = &arp_table[i].ipaddr;
 1248              		.loc 1 618 28 discriminator 1 view .LVU336
 1249 0020 012B     		cmp	r3, #1
 1250 0022 29D9     		bls	.L91
 619:Middlewares/Third_Party/LwIP/src/core/ipv4/etharp.c ****     *netif   = arp_table[i].netif;
 1251              		.loc 1 619 5 is_stmt 1 view .LVU337
 619:Middlewares/Third_Party/LwIP/src/core/ipv4/etharp.c ****     *netif   = arp_table[i].netif;
 1252              		.loc 1 619 16 is_stmt 0 view .LVU338
 1253 0024 1549     		ldr	r1, .L96
 1254 0026 01EBC203 		add	r3, r1, r2, lsl #3
 1255 002a 1A1D     		adds	r2, r3, #4
 619:Middlewares/Third_Party/LwIP/src/core/ipv4/etharp.c ****     *netif   = arp_table[i].netif;
 1256              		.loc 1 619 14 view .LVU339
 1257 002c 3A60     		str	r2, [r7]
 620:Middlewares/Third_Party/LwIP/src/core/ipv4/etharp.c ****     *eth_ret = &arp_table[i].ethaddr;
 1258              		.loc 1 620 5 is_stmt 1 view .LVU340
 620:Middlewares/Third_Party/LwIP/src/core/ipv4/etharp.c ****     *eth_ret = &arp_table[i].ethaddr;
 1259              		.loc 1 620 28 is_stmt 0 view .LVU341
 1260 002e 9B68     		ldr	r3, [r3, #8]
 620:Middlewares/Third_Party/LwIP/src/core/ipv4/etharp.c ****     *eth_ret = &arp_table[i].ethaddr;
 1261              		.loc 1 620 14 view .LVU342
 1262 0030 3360     		str	r3, [r6]
 621:Middlewares/Third_Party/LwIP/src/core/ipv4/etharp.c ****     return 1;
 1263              		.loc 1 621 5 is_stmt 1 view .LVU343
 621:Middlewares/Third_Party/LwIP/src/core/ipv4/etharp.c ****     return 1;
 1264              		.loc 1 621 16 is_stmt 0 view .LVU344
 1265 0032 04EB4402 		add	r2, r4, r4, lsl #1
 1266 0036 D200     		lsls	r2, r2, #3
 1267 0038 0832     		adds	r2, r2, #8
 1268 003a 0A44     		add	r2, r2, r1
 1269 003c 0432     		adds	r2, r2, #4
 621:Middlewares/Third_Party/LwIP/src/core/ipv4/etharp.c ****     return 1;
 1270              		.loc 1 621 14 view .LVU345
 1271 003e 2A60     		str	r2, [r5]
 622:Middlewares/Third_Party/LwIP/src/core/ipv4/etharp.c ****   } else {
 1272              		.loc 1 622 5 is_stmt 1 view .LVU346
 622:Middlewares/Third_Party/LwIP/src/core/ipv4/etharp.c ****   } else {
 1273              		.loc 1 622 12 is_stmt 0 view .LVU347
 1274 0040 0120     		movs	r0, #1
 1275              	.L85:
 626:Middlewares/Third_Party/LwIP/src/core/ipv4/etharp.c **** 
 1276              		.loc 1 626 1 view .LVU348
 1277 0042 F8BD     		pop	{r3, r4, r5, r6, r7, pc}
 1278              	.LVL122:
 1279              	.L93:
 614:Middlewares/Third_Party/LwIP/src/core/ipv4/etharp.c ****   LWIP_ASSERT("netif != NULL", netif != NULL);
 1280              		.loc 1 614 3 is_stmt 1 discriminator 1 view .LVU349
 614:Middlewares/Third_Party/LwIP/src/core/ipv4/etharp.c ****   LWIP_ASSERT("netif != NULL", netif != NULL);
 1281              		.loc 1 614 3 discriminator 1 view .LVU350
 1282 0044 0E4B     		ldr	r3, .L96+4
 1283              	.LVL123:
 614:Middlewares/Third_Party/LwIP/src/core/ipv4/etharp.c ****   LWIP_ASSERT("netif != NULL", netif != NULL);
ARM GAS  /var/folders/6z/bj4rvlwn0mvdnknwnn42jd6r0000gn/T//ccvcQ9wF.s 			page 48


 1284              		.loc 1 614 3 is_stmt 0 discriminator 1 view .LVU351
 1285 0046 40F26622 		movw	r2, #614
 1286              	.LVL124:
 614:Middlewares/Third_Party/LwIP/src/core/ipv4/etharp.c ****   LWIP_ASSERT("netif != NULL", netif != NULL);
 1287              		.loc 1 614 3 discriminator 1 view .LVU352
 1288 004a 0E49     		ldr	r1, .L96+8
 1289              	.LVL125:
 614:Middlewares/Third_Party/LwIP/src/core/ipv4/etharp.c ****   LWIP_ASSERT("netif != NULL", netif != NULL);
 1290              		.loc 1 614 3 discriminator 1 view .LVU353
 1291 004c 0E48     		ldr	r0, .L96+12
 1292              	.LVL126:
 614:Middlewares/Third_Party/LwIP/src/core/ipv4/etharp.c ****   LWIP_ASSERT("netif != NULL", netif != NULL);
 1293              		.loc 1 614 3 discriminator 1 view .LVU354
 1294 004e FFF7FEFF 		bl	printf
 1295              	.LVL127:
 1296 0052 DBE7     		b	.L86
 1297              	.L94:
 615:Middlewares/Third_Party/LwIP/src/core/ipv4/etharp.c ****   LWIP_ASSERT("eth_ret != NULL", eth_ret != NULL);
 1298              		.loc 1 615 3 is_stmt 1 discriminator 1 view .LVU355
 615:Middlewares/Third_Party/LwIP/src/core/ipv4/etharp.c ****   LWIP_ASSERT("eth_ret != NULL", eth_ret != NULL);
 1299              		.loc 1 615 3 discriminator 1 view .LVU356
 1300 0054 0A4B     		ldr	r3, .L96+4
 1301 0056 40F26722 		movw	r2, #615
 1302 005a 0C49     		ldr	r1, .L96+16
 1303 005c 0A48     		ldr	r0, .L96+12
 1304 005e FFF7FEFF 		bl	printf
 1305              	.LVL128:
 1306 0062 D4E7     		b	.L87
 1307              	.L95:
 616:Middlewares/Third_Party/LwIP/src/core/ipv4/etharp.c **** 
 1308              		.loc 1 616 3 discriminator 1 view .LVU357
 616:Middlewares/Third_Party/LwIP/src/core/ipv4/etharp.c **** 
 1309              		.loc 1 616 3 discriminator 1 view .LVU358
 1310 0064 064B     		ldr	r3, .L96+4
 1311 0066 4FF41A72 		mov	r2, #616
 1312 006a 0949     		ldr	r1, .L96+20
 1313 006c 0648     		ldr	r0, .L96+12
 1314 006e FFF7FEFF 		bl	printf
 1315              	.LVL129:
 1316 0072 CDE7     		b	.L88
 1317              	.L90:
 624:Middlewares/Third_Party/LwIP/src/core/ipv4/etharp.c ****   }
 1318              		.loc 1 624 12 is_stmt 0 view .LVU359
 1319 0074 0020     		movs	r0, #0
 1320 0076 E4E7     		b	.L85
 1321              	.L91:
 1322 0078 0020     		movs	r0, #0
 1323 007a E2E7     		b	.L85
 1324              	.L97:
 1325              		.align	2
 1326              	.L96:
 1327 007c 00000000 		.word	arp_table
 1328 0080 00000000 		.word	.LC0
 1329 0084 00000000 		.word	.LC10
 1330 0088 4C000000 		.word	.LC2
 1331 008c 00000000 		.word	.LC6
 1332 0090 10000000 		.word	.LC11
ARM GAS  /var/folders/6z/bj4rvlwn0mvdnknwnn42jd6r0000gn/T//ccvcQ9wF.s 			page 49


 1333              		.cfi_endproc
 1334              	.LFE176:
 1336              		.section	.text.etharp_input,"ax",%progbits
 1337              		.align	1
 1338              		.global	etharp_input
 1339              		.syntax unified
 1340              		.thumb
 1341              		.thumb_func
 1343              	etharp_input:
 1344              	.LVL130:
 1345              	.LFB177:
 642:Middlewares/Third_Party/LwIP/src/core/ipv4/etharp.c ****   struct etharp_hdr *hdr;
 1346              		.loc 1 642 1 is_stmt 1 view -0
 1347              		.cfi_startproc
 1348              		@ args = 0, pretend = 0, frame = 8
 1349              		@ frame_needed = 0, uses_anonymous_args = 0
 642:Middlewares/Third_Party/LwIP/src/core/ipv4/etharp.c ****   struct etharp_hdr *hdr;
 1350              		.loc 1 642 1 is_stmt 0 view .LVU361
 1351 0000 2DE9F041 		push	{r4, r5, r6, r7, r8, lr}
 1352              	.LCFI19:
 1353              		.cfi_def_cfa_offset 24
 1354              		.cfi_offset 4, -24
 1355              		.cfi_offset 5, -20
 1356              		.cfi_offset 6, -16
 1357              		.cfi_offset 7, -12
 1358              		.cfi_offset 8, -8
 1359              		.cfi_offset 14, -4
 1360 0004 86B0     		sub	sp, sp, #24
 1361              	.LCFI20:
 1362              		.cfi_def_cfa_offset 48
 643:Middlewares/Third_Party/LwIP/src/core/ipv4/etharp.c ****   /* these are aligned properly, whereas the ARP header fields might not be */
 1363              		.loc 1 643 3 is_stmt 1 view .LVU362
 645:Middlewares/Third_Party/LwIP/src/core/ipv4/etharp.c ****   u8_t for_us;
 1364              		.loc 1 645 3 view .LVU363
 646:Middlewares/Third_Party/LwIP/src/core/ipv4/etharp.c **** 
 1365              		.loc 1 646 3 view .LVU364
 648:Middlewares/Third_Party/LwIP/src/core/ipv4/etharp.c **** 
 1366              		.loc 1 648 28 view .LVU365
 650:Middlewares/Third_Party/LwIP/src/core/ipv4/etharp.c **** 
 1367              		.loc 1 650 3 view .LVU366
 650:Middlewares/Third_Party/LwIP/src/core/ipv4/etharp.c **** 
 1368              		.loc 1 650 3 view .LVU367
 1369 0006 A9B1     		cbz	r1, .L109
 1370 0008 0446     		mov	r4, r0
 1371 000a 0E46     		mov	r6, r1
 650:Middlewares/Third_Party/LwIP/src/core/ipv4/etharp.c **** 
 1372              		.loc 1 650 3 view .LVU368
 650:Middlewares/Third_Party/LwIP/src/core/ipv4/etharp.c **** 
 1373              		.loc 1 650 3 view .LVU369
 652:Middlewares/Third_Party/LwIP/src/core/ipv4/etharp.c **** 
 1374              		.loc 1 652 3 view .LVU370
 652:Middlewares/Third_Party/LwIP/src/core/ipv4/etharp.c **** 
 1375              		.loc 1 652 7 is_stmt 0 view .LVU371
 1376 000c 4568     		ldr	r5, [r0, #4]
 1377              	.LVL131:
 655:Middlewares/Third_Party/LwIP/src/core/ipv4/etharp.c ****       (hdr->hwlen != ETH_HWADDR_LEN) ||
 1378              		.loc 1 655 3 is_stmt 1 view .LVU372
ARM GAS  /var/folders/6z/bj4rvlwn0mvdnknwnn42jd6r0000gn/T//ccvcQ9wF.s 			page 50


 655:Middlewares/Third_Party/LwIP/src/core/ipv4/etharp.c ****       (hdr->hwlen != ETH_HWADDR_LEN) ||
 1379              		.loc 1 655 11 is_stmt 0 view .LVU373
 1380 000e 2B88     		ldrh	r3, [r5]	@ unaligned
 655:Middlewares/Third_Party/LwIP/src/core/ipv4/etharp.c ****       (hdr->hwlen != ETH_HWADDR_LEN) ||
 1381              		.loc 1 655 6 view .LVU374
 1382 0010 B3F5807F 		cmp	r3, #256
 1383 0014 08D1     		bne	.L101
 656:Middlewares/Third_Party/LwIP/src/core/ipv4/etharp.c ****       (hdr->protolen != sizeof(ip4_addr_t)) ||
 1384              		.loc 1 656 11 view .LVU375
 1385 0016 2B79     		ldrb	r3, [r5, #4]	@ zero_extendqisi2
 655:Middlewares/Third_Party/LwIP/src/core/ipv4/etharp.c ****       (hdr->hwlen != ETH_HWADDR_LEN) ||
 1386              		.loc 1 655 60 discriminator 1 view .LVU376
 1387 0018 062B     		cmp	r3, #6
 1388 001a 05D1     		bne	.L101
 657:Middlewares/Third_Party/LwIP/src/core/ipv4/etharp.c ****       (hdr->proto != PP_HTONS(ETHTYPE_IP)))  {
 1389              		.loc 1 657 11 view .LVU377
 1390 001c 6B79     		ldrb	r3, [r5, #5]	@ zero_extendqisi2
 656:Middlewares/Third_Party/LwIP/src/core/ipv4/etharp.c ****       (hdr->protolen != sizeof(ip4_addr_t)) ||
 1391              		.loc 1 656 38 view .LVU378
 1392 001e 042B     		cmp	r3, #4
 1393 0020 02D1     		bne	.L101
 658:Middlewares/Third_Party/LwIP/src/core/ipv4/etharp.c ****     LWIP_DEBUGF(ETHARP_DEBUG | LWIP_DBG_TRACE | LWIP_DBG_LEVEL_WARNING,
 1394              		.loc 1 658 11 view .LVU379
 1395 0022 6B88     		ldrh	r3, [r5, #2]	@ unaligned
 657:Middlewares/Third_Party/LwIP/src/core/ipv4/etharp.c ****       (hdr->proto != PP_HTONS(ETHTYPE_IP)))  {
 1396              		.loc 1 657 45 view .LVU380
 1397 0024 082B     		cmp	r3, #8
 1398 0026 0DD0     		beq	.L102
 1399              	.L101:
 661:Middlewares/Third_Party/LwIP/src/core/ipv4/etharp.c ****     ETHARP_STATS_INC(etharp.proterr);
 1400              		.loc 1 661 84 is_stmt 1 view .LVU381
 662:Middlewares/Third_Party/LwIP/src/core/ipv4/etharp.c ****     ETHARP_STATS_INC(etharp.drop);
 1401              		.loc 1 662 37 view .LVU382
 663:Middlewares/Third_Party/LwIP/src/core/ipv4/etharp.c ****     pbuf_free(p);
 1402              		.loc 1 663 34 view .LVU383
 664:Middlewares/Third_Party/LwIP/src/core/ipv4/etharp.c ****     return;
 1403              		.loc 1 664 5 view .LVU384
 1404 0028 2046     		mov	r0, r4
 1405              	.LVL132:
 664:Middlewares/Third_Party/LwIP/src/core/ipv4/etharp.c ****     return;
 1406              		.loc 1 664 5 is_stmt 0 view .LVU385
 1407 002a FFF7FEFF 		bl	pbuf_free
 1408              	.LVL133:
 665:Middlewares/Third_Party/LwIP/src/core/ipv4/etharp.c ****   }
 1409              		.loc 1 665 5 is_stmt 1 view .LVU386
 1410              	.L98:
 742:Middlewares/Third_Party/LwIP/src/core/ipv4/etharp.c **** 
 1411              		.loc 1 742 1 is_stmt 0 view .LVU387
 1412 002e 06B0     		add	sp, sp, #24
 1413              	.LCFI21:
 1414              		.cfi_remember_state
 1415              		.cfi_def_cfa_offset 24
 1416              		@ sp needed
 1417 0030 BDE8F081 		pop	{r4, r5, r6, r7, r8, pc}
 1418              	.LVL134:
 1419              	.L109:
 1420              	.LCFI22:
ARM GAS  /var/folders/6z/bj4rvlwn0mvdnknwnn42jd6r0000gn/T//ccvcQ9wF.s 			page 51


 1421              		.cfi_restore_state
 650:Middlewares/Third_Party/LwIP/src/core/ipv4/etharp.c **** 
 1422              		.loc 1 650 3 is_stmt 1 discriminator 1 view .LVU388
 650:Middlewares/Third_Party/LwIP/src/core/ipv4/etharp.c **** 
 1423              		.loc 1 650 3 discriminator 1 view .LVU389
 1424 0034 1D4B     		ldr	r3, .L111
 1425 0036 40F28A22 		movw	r2, #650
 1426 003a 1D49     		ldr	r1, .L111+4
 1427              	.LVL135:
 650:Middlewares/Third_Party/LwIP/src/core/ipv4/etharp.c **** 
 1428              		.loc 1 650 3 is_stmt 0 discriminator 1 view .LVU390
 1429 003c 1D48     		ldr	r0, .L111+8
 1430              	.LVL136:
 650:Middlewares/Third_Party/LwIP/src/core/ipv4/etharp.c **** 
 1431              		.loc 1 650 3 discriminator 1 view .LVU391
 1432 003e FFF7FEFF 		bl	printf
 1433              	.LVL137:
 650:Middlewares/Third_Party/LwIP/src/core/ipv4/etharp.c **** 
 1434              		.loc 1 650 3 is_stmt 1 discriminator 1 view .LVU392
 650:Middlewares/Third_Party/LwIP/src/core/ipv4/etharp.c **** 
 1435              		.loc 1 650 3 discriminator 1 view .LVU393
 650:Middlewares/Third_Party/LwIP/src/core/ipv4/etharp.c **** 
 1436              		.loc 1 650 3 is_stmt 0 view .LVU394
 1437 0042 F4E7     		b	.L98
 1438              	.LVL138:
 1439              	.L102:
 667:Middlewares/Third_Party/LwIP/src/core/ipv4/etharp.c **** 
 1440              		.loc 1 667 32 is_stmt 1 view .LVU395
 678:Middlewares/Third_Party/LwIP/src/core/ipv4/etharp.c ****   IPADDR_WORDALIGNED_COPY_TO_IP4_ADDR_T(&dipaddr, &hdr->dipaddr);
 1441              		.loc 1 678 3 view .LVU396
 1442 0044 D5F80E30 		ldr	r3, [r5, #14]	@ unaligned
 1443 0048 0593     		str	r3, [sp, #20]
 679:Middlewares/Third_Party/LwIP/src/core/ipv4/etharp.c **** 
 1444              		.loc 1 679 3 view .LVU397
 1445 004a AA69     		ldr	r2, [r5, #24]	@ unaligned
 682:Middlewares/Third_Party/LwIP/src/core/ipv4/etharp.c ****     for_us = 0;
 1446              		.loc 1 682 3 view .LVU398
 682:Middlewares/Third_Party/LwIP/src/core/ipv4/etharp.c ****     for_us = 0;
 1447              		.loc 1 682 7 is_stmt 0 view .LVU399
 1448 004c 4F68     		ldr	r7, [r1, #4]
 682:Middlewares/Third_Party/LwIP/src/core/ipv4/etharp.c ****     for_us = 0;
 1449              		.loc 1 682 6 view .LVU400
 1450 004e 7FB9     		cbnz	r7, .L103
 1451              	.LVL139:
 694:Middlewares/Third_Party/LwIP/src/core/ipv4/etharp.c ****                           for_us ? ETHARP_FLAG_TRY_HARD : ETHARP_FLAG_FIND_ONLY);
 1452              		.loc 1 694 3 is_stmt 1 view .LVU401
 1453 0050 05F10808 		add	r8, r5, #8
 694:Middlewares/Third_Party/LwIP/src/core/ipv4/etharp.c ****                           for_us ? ETHARP_FLAG_TRY_HARD : ETHARP_FLAG_FIND_ONLY);
 1454              		.loc 1 694 3 is_stmt 0 discriminator 2 view .LVU402
 1455 0054 0223     		movs	r3, #2
 1456              	.LVL140:
 1457              	.L104:
 694:Middlewares/Third_Party/LwIP/src/core/ipv4/etharp.c ****                           for_us ? ETHARP_FLAG_TRY_HARD : ETHARP_FLAG_FIND_ONLY);
 1458              		.loc 1 694 3 discriminator 4 view .LVU403
 1459 0056 4246     		mov	r2, r8
 1460 0058 05A9     		add	r1, sp, #20
 1461              	.LVL141:
ARM GAS  /var/folders/6z/bj4rvlwn0mvdnknwnn42jd6r0000gn/T//ccvcQ9wF.s 			page 52


 694:Middlewares/Third_Party/LwIP/src/core/ipv4/etharp.c ****                           for_us ? ETHARP_FLAG_TRY_HARD : ETHARP_FLAG_FIND_ONLY);
 1462              		.loc 1 694 3 discriminator 4 view .LVU404
 1463 005a 3046     		mov	r0, r6
 1464              	.LVL142:
 694:Middlewares/Third_Party/LwIP/src/core/ipv4/etharp.c ****                           for_us ? ETHARP_FLAG_TRY_HARD : ETHARP_FLAG_FIND_ONLY);
 1465              		.loc 1 694 3 discriminator 4 view .LVU405
 1466 005c FFF7FEFF 		bl	etharp_update_arp_entry
 1467              	.LVL143:
 698:Middlewares/Third_Party/LwIP/src/core/ipv4/etharp.c ****     /* ARP request? */
 1468              		.loc 1 698 3 is_stmt 1 view .LVU406
 698:Middlewares/Third_Party/LwIP/src/core/ipv4/etharp.c ****     /* ARP request? */
 1469              		.loc 1 698 14 is_stmt 0 view .LVU407
 1470 0060 EB88     		ldrh	r3, [r5, #6]	@ unaligned
 698:Middlewares/Third_Party/LwIP/src/core/ipv4/etharp.c ****     /* ARP request? */
 1471              		.loc 1 698 3 view .LVU408
 1472 0062 B3F5807F 		cmp	r3, #256
 1473 0066 0ED0     		beq	.L110
 1474              	.L105:
 741:Middlewares/Third_Party/LwIP/src/core/ipv4/etharp.c **** }
 1475              		.loc 1 741 3 is_stmt 1 view .LVU409
 1476 0068 2046     		mov	r0, r4
 1477 006a FFF7FEFF 		bl	pbuf_free
 1478              	.LVL144:
 1479 006e DEE7     		b	.L98
 1480              	.LVL145:
 1481              	.L103:
 686:Middlewares/Third_Party/LwIP/src/core/ipv4/etharp.c ****   }
 1482              		.loc 1 686 5 view .LVU410
 686:Middlewares/Third_Party/LwIP/src/core/ipv4/etharp.c ****   }
 1483              		.loc 1 686 14 is_stmt 0 view .LVU411
 1484 0070 9742     		cmp	r7, r2
 1485 0072 14BF     		ite	ne
 1486 0074 0027     		movne	r7, #0
 1487 0076 0127     		moveq	r7, #1
 1488              	.LVL146:
 694:Middlewares/Third_Party/LwIP/src/core/ipv4/etharp.c ****                           for_us ? ETHARP_FLAG_TRY_HARD : ETHARP_FLAG_FIND_ONLY);
 1489              		.loc 1 694 3 is_stmt 1 view .LVU412
 1490 0078 05F10808 		add	r8, r5, #8
 1491 007c 0FB1     		cbz	r7, .L107
 694:Middlewares/Third_Party/LwIP/src/core/ipv4/etharp.c ****                           for_us ? ETHARP_FLAG_TRY_HARD : ETHARP_FLAG_FIND_ONLY);
 1492              		.loc 1 694 3 is_stmt 0 discriminator 1 view .LVU413
 1493 007e 0123     		movs	r3, #1
 1494 0080 E9E7     		b	.L104
 1495              	.L107:
 694:Middlewares/Third_Party/LwIP/src/core/ipv4/etharp.c ****                           for_us ? ETHARP_FLAG_TRY_HARD : ETHARP_FLAG_FIND_ONLY);
 1496              		.loc 1 694 3 discriminator 2 view .LVU414
 1497 0082 0223     		movs	r3, #2
 1498 0084 E7E7     		b	.L104
 1499              	.LVL147:
 1500              	.L110:
 705:Middlewares/Third_Party/LwIP/src/core/ipv4/etharp.c ****       /* ARP request for our address? */
 1501              		.loc 1 705 92 is_stmt 1 view .LVU415
 707:Middlewares/Third_Party/LwIP/src/core/ipv4/etharp.c ****         /* send ARP response */
 1502              		.loc 1 707 7 view .LVU416
 707:Middlewares/Third_Party/LwIP/src/core/ipv4/etharp.c ****         /* send ARP response */
 1503              		.loc 1 707 10 is_stmt 0 view .LVU417
 1504 0086 002F     		cmp	r7, #0
ARM GAS  /var/folders/6z/bj4rvlwn0mvdnknwnn42jd6r0000gn/T//ccvcQ9wF.s 			page 53


 1505 0088 EED0     		beq	.L105
 709:Middlewares/Third_Party/LwIP/src/core/ipv4/etharp.c ****                    (struct eth_addr *)netif->hwaddr, &hdr->shwaddr,
 1506              		.loc 1 709 9 is_stmt 1 view .LVU418
 710:Middlewares/Third_Party/LwIP/src/core/ipv4/etharp.c ****                    (struct eth_addr *)netif->hwaddr, netif_ip4_addr(netif),
 1507              		.loc 1 710 39 is_stmt 0 view .LVU419
 1508 008a 06F12601 		add	r1, r6, #38
 711:Middlewares/Third_Party/LwIP/src/core/ipv4/etharp.c ****                    &hdr->shwaddr, &sipaddr,
 1509              		.loc 1 711 54 view .LVU420
 1510 008e 331D     		adds	r3, r6, #4
 709:Middlewares/Third_Party/LwIP/src/core/ipv4/etharp.c ****                    (struct eth_addr *)netif->hwaddr, &hdr->shwaddr,
 1511              		.loc 1 709 9 view .LVU421
 1512 0090 0222     		movs	r2, #2
 1513 0092 0392     		str	r2, [sp, #12]
 1514 0094 05AA     		add	r2, sp, #20
 1515 0096 0292     		str	r2, [sp, #8]
 1516 0098 CDF80480 		str	r8, [sp, #4]
 1517 009c 0093     		str	r3, [sp]
 1518 009e 0B46     		mov	r3, r1
 1519 00a0 4246     		mov	r2, r8
 1520 00a2 3046     		mov	r0, r6
 1521 00a4 FFF7FEFF 		bl	etharp_raw
 1522              	.LVL148:
 1523 00a8 DEE7     		b	.L105
 1524              	.L112:
 1525 00aa 00BF     		.align	2
 1526              	.L111:
 1527 00ac 00000000 		.word	.LC0
 1528 00b0 00000000 		.word	.LC6
 1529 00b4 4C000000 		.word	.LC2
 1530              		.cfi_endproc
 1531              	.LFE177:
 1533              		.section	.text.etharp_request,"ax",%progbits
 1534              		.align	1
 1535              		.global	etharp_request
 1536              		.syntax unified
 1537              		.thumb
 1538              		.thumb_func
 1540              	etharp_request:
 1541              	.LVL149:
 1542              	.LFB183:
1187:Middlewares/Third_Party/LwIP/src/core/ipv4/etharp.c **** 
1188:Middlewares/Third_Party/LwIP/src/core/ipv4/etharp.c **** /**
1189:Middlewares/Third_Party/LwIP/src/core/ipv4/etharp.c ****  * Send an ARP request packet asking for ipaddr.
1190:Middlewares/Third_Party/LwIP/src/core/ipv4/etharp.c ****  *
1191:Middlewares/Third_Party/LwIP/src/core/ipv4/etharp.c ****  * @param netif the lwip network interface on which to send the request
1192:Middlewares/Third_Party/LwIP/src/core/ipv4/etharp.c ****  * @param ipaddr the IP address for which to ask
1193:Middlewares/Third_Party/LwIP/src/core/ipv4/etharp.c ****  * @return ERR_OK if the request has been sent
1194:Middlewares/Third_Party/LwIP/src/core/ipv4/etharp.c ****  *         ERR_MEM if the ARP packet couldn't be allocated
1195:Middlewares/Third_Party/LwIP/src/core/ipv4/etharp.c ****  *         any other err_t on failure
1196:Middlewares/Third_Party/LwIP/src/core/ipv4/etharp.c ****  */
1197:Middlewares/Third_Party/LwIP/src/core/ipv4/etharp.c **** err_t
1198:Middlewares/Third_Party/LwIP/src/core/ipv4/etharp.c **** etharp_request(struct netif *netif, const ip4_addr_t *ipaddr)
1199:Middlewares/Third_Party/LwIP/src/core/ipv4/etharp.c **** {
 1543              		.loc 1 1199 1 is_stmt 1 view -0
 1544              		.cfi_startproc
 1545              		@ args = 0, pretend = 0, frame = 0
 1546              		@ frame_needed = 0, uses_anonymous_args = 0
ARM GAS  /var/folders/6z/bj4rvlwn0mvdnknwnn42jd6r0000gn/T//ccvcQ9wF.s 			page 54


 1547              		.loc 1 1199 1 is_stmt 0 view .LVU423
 1548 0000 08B5     		push	{r3, lr}
 1549              	.LCFI23:
 1550              		.cfi_def_cfa_offset 8
 1551              		.cfi_offset 3, -8
 1552              		.cfi_offset 14, -4
1200:Middlewares/Third_Party/LwIP/src/core/ipv4/etharp.c ****   LWIP_DEBUGF(ETHARP_DEBUG | LWIP_DBG_TRACE, ("etharp_request: sending ARP request.\n"));
 1553              		.loc 1 1200 89 is_stmt 1 view .LVU424
1201:Middlewares/Third_Party/LwIP/src/core/ipv4/etharp.c ****   return etharp_request_dst(netif, ipaddr, &ethbroadcast);
 1554              		.loc 1 1201 3 view .LVU425
 1555              		.loc 1 1201 10 is_stmt 0 view .LVU426
 1556 0002 024A     		ldr	r2, .L115
 1557 0004 FFF7FEFF 		bl	etharp_request_dst
 1558              	.LVL150:
1202:Middlewares/Third_Party/LwIP/src/core/ipv4/etharp.c **** }
 1559              		.loc 1 1202 1 view .LVU427
 1560 0008 08BD     		pop	{r3, pc}
 1561              	.L116:
 1562 000a 00BF     		.align	2
 1563              	.L115:
 1564 000c 00000000 		.word	ethbroadcast
 1565              		.cfi_endproc
 1566              	.LFE183:
 1568              		.section	.text.etharp_tmr,"ax",%progbits
 1569              		.align	1
 1570              		.global	etharp_tmr
 1571              		.syntax unified
 1572              		.thumb
 1573              		.thumb_func
 1575              	etharp_tmr:
 1576              	.LFB171:
 198:Middlewares/Third_Party/LwIP/src/core/ipv4/etharp.c ****   int i;
 1577              		.loc 1 198 1 is_stmt 1 view -0
 1578              		.cfi_startproc
 1579              		@ args = 0, pretend = 0, frame = 0
 1580              		@ frame_needed = 0, uses_anonymous_args = 0
 1581 0000 10B5     		push	{r4, lr}
 1582              	.LCFI24:
 1583              		.cfi_def_cfa_offset 8
 1584              		.cfi_offset 4, -8
 1585              		.cfi_offset 14, -4
 199:Middlewares/Third_Party/LwIP/src/core/ipv4/etharp.c **** 
 1586              		.loc 1 199 3 view .LVU429
 201:Middlewares/Third_Party/LwIP/src/core/ipv4/etharp.c ****   /* remove expired entries from the ARP table */
 1587              		.loc 1 201 48 view .LVU430
 203:Middlewares/Third_Party/LwIP/src/core/ipv4/etharp.c ****     u8_t state = arp_table[i].state;
 1588              		.loc 1 203 3 view .LVU431
 1589              	.LVL151:
 203:Middlewares/Third_Party/LwIP/src/core/ipv4/etharp.c ****     u8_t state = arp_table[i].state;
 1590              		.loc 1 203 10 is_stmt 0 view .LVU432
 1591 0002 0024     		movs	r4, #0
 203:Middlewares/Third_Party/LwIP/src/core/ipv4/etharp.c ****     u8_t state = arp_table[i].state;
 1592              		.loc 1 203 3 view .LVU433
 1593 0004 05E0     		b	.L118
 1594              	.LVL152:
 1595              	.L127:
 1596              	.LBB7:
ARM GAS  /var/folders/6z/bj4rvlwn0mvdnknwnn42jd6r0000gn/T//ccvcQ9wF.s 			page 55


 212:Middlewares/Third_Party/LwIP/src/core/ipv4/etharp.c ****            (arp_table[i].ctime >= ARP_MAXPENDING))) {
 1597              		.loc 1 212 58 view .LVU434
 1598 0006 042B     		cmp	r3, #4
 1599 0008 1BD9     		bls	.L121
 1600              	.L120:
 216:Middlewares/Third_Party/LwIP/src/core/ipv4/etharp.c ****         /* clean up entries that have just been expired */
 1601              		.loc 1 216 105 is_stmt 1 view .LVU435
 218:Middlewares/Third_Party/LwIP/src/core/ipv4/etharp.c ****       } else if (arp_table[i].state == ETHARP_STATE_STABLE_REREQUESTING_1) {
 1602              		.loc 1 218 9 view .LVU436
 1603 000a 2046     		mov	r0, r4
 1604 000c FFF7FEFF 		bl	etharp_free_entry
 1605              	.LVL153:
 1606              	.L119:
 218:Middlewares/Third_Party/LwIP/src/core/ipv4/etharp.c ****       } else if (arp_table[i].state == ETHARP_STATE_STABLE_REREQUESTING_1) {
 1607              		.loc 1 218 9 is_stmt 0 view .LVU437
 1608              	.LBE7:
 203:Middlewares/Third_Party/LwIP/src/core/ipv4/etharp.c ****     u8_t state = arp_table[i].state;
 1609              		.loc 1 203 35 is_stmt 1 discriminator 2 view .LVU438
 1610 0010 0134     		adds	r4, r4, #1
 1611              	.LVL154:
 1612              	.L118:
 203:Middlewares/Third_Party/LwIP/src/core/ipv4/etharp.c ****     u8_t state = arp_table[i].state;
 1613              		.loc 1 203 17 discriminator 1 view .LVU439
 1614 0012 092C     		cmp	r4, #9
 1615 0014 35DC     		bgt	.L126
 1616              	.LBB8:
 204:Middlewares/Third_Party/LwIP/src/core/ipv4/etharp.c ****     if (state != ETHARP_STATE_EMPTY
 1617              		.loc 1 204 5 view .LVU440
 204:Middlewares/Third_Party/LwIP/src/core/ipv4/etharp.c ****     if (state != ETHARP_STATE_EMPTY
 1618              		.loc 1 204 10 is_stmt 0 view .LVU441
 1619 0016 04EB4403 		add	r3, r4, r4, lsl #1
 1620 001a DA00     		lsls	r2, r3, #3
 1621 001c 194B     		ldr	r3, .L130
 1622 001e 1344     		add	r3, r3, r2
 1623 0020 1A7D     		ldrb	r2, [r3, #20]	@ zero_extendqisi2
 1624              	.LVL155:
 205:Middlewares/Third_Party/LwIP/src/core/ipv4/etharp.c **** #if ETHARP_SUPPORT_STATIC_ENTRIES
 1625              		.loc 1 205 5 is_stmt 1 view .LVU442
 205:Middlewares/Third_Party/LwIP/src/core/ipv4/etharp.c **** #if ETHARP_SUPPORT_STATIC_ENTRIES
 1626              		.loc 1 205 8 is_stmt 0 view .LVU443
 1627 0022 002A     		cmp	r2, #0
 1628 0024 F4D0     		beq	.L119
 210:Middlewares/Third_Party/LwIP/src/core/ipv4/etharp.c ****       if ((arp_table[i].ctime >= ARP_MAXAGE) ||
 1629              		.loc 1 210 7 is_stmt 1 view .LVU444
 210:Middlewares/Third_Party/LwIP/src/core/ipv4/etharp.c ****       if ((arp_table[i].ctime >= ARP_MAXAGE) ||
 1630              		.loc 1 210 19 is_stmt 0 view .LVU445
 1631 0026 04EB4401 		add	r1, r4, r4, lsl #1
 1632 002a CB00     		lsls	r3, r1, #3
 1633 002c 1549     		ldr	r1, .L130
 1634 002e 1944     		add	r1, r1, r3
 1635 0030 4B8A     		ldrh	r3, [r1, #18]
 210:Middlewares/Third_Party/LwIP/src/core/ipv4/etharp.c ****       if ((arp_table[i].ctime >= ARP_MAXAGE) ||
 1636              		.loc 1 210 25 view .LVU446
 1637 0032 0133     		adds	r3, r3, #1
 1638 0034 9BB2     		uxth	r3, r3
 1639 0036 4B82     		strh	r3, [r1, #18]	@ movhi
 211:Middlewares/Third_Party/LwIP/src/core/ipv4/etharp.c ****           ((arp_table[i].state == ETHARP_STATE_PENDING)  &&
ARM GAS  /var/folders/6z/bj4rvlwn0mvdnknwnn42jd6r0000gn/T//ccvcQ9wF.s 			page 56


 1640              		.loc 1 211 7 is_stmt 1 view .LVU447
 211:Middlewares/Third_Party/LwIP/src/core/ipv4/etharp.c ****           ((arp_table[i].state == ETHARP_STATE_PENDING)  &&
 1641              		.loc 1 211 10 is_stmt 0 view .LVU448
 1642 0038 B3F5967F 		cmp	r3, #300
 1643 003c E5D2     		bcs	.L120
 211:Middlewares/Third_Party/LwIP/src/core/ipv4/etharp.c ****           ((arp_table[i].state == ETHARP_STATE_PENDING)  &&
 1644              		.loc 1 211 46 discriminator 1 view .LVU449
 1645 003e 012A     		cmp	r2, #1
 1646 0040 E1D0     		beq	.L127
 1647              	.L121:
 219:Middlewares/Third_Party/LwIP/src/core/ipv4/etharp.c ****         /* Don't send more than one request every 2 seconds. */
 1648              		.loc 1 219 14 is_stmt 1 view .LVU450
 219:Middlewares/Third_Party/LwIP/src/core/ipv4/etharp.c ****         /* Don't send more than one request every 2 seconds. */
 1649              		.loc 1 219 17 is_stmt 0 view .LVU451
 1650 0042 032A     		cmp	r2, #3
 1651 0044 0DD0     		beq	.L128
 222:Middlewares/Third_Party/LwIP/src/core/ipv4/etharp.c ****         /* Reset state to stable, so that the next transmitted packet will
 1652              		.loc 1 222 14 is_stmt 1 view .LVU452
 222:Middlewares/Third_Party/LwIP/src/core/ipv4/etharp.c ****         /* Reset state to stable, so that the next transmitted packet will
 1653              		.loc 1 222 17 is_stmt 0 view .LVU453
 1654 0046 042A     		cmp	r2, #4
 1655 0048 13D0     		beq	.L129
 226:Middlewares/Third_Party/LwIP/src/core/ipv4/etharp.c ****         /* still pending, resend an ARP query */
 1656              		.loc 1 226 14 is_stmt 1 view .LVU454
 226:Middlewares/Third_Party/LwIP/src/core/ipv4/etharp.c ****         /* still pending, resend an ARP query */
 1657              		.loc 1 226 17 is_stmt 0 view .LVU455
 1658 004a 012A     		cmp	r2, #1
 1659 004c E0D1     		bne	.L119
 228:Middlewares/Third_Party/LwIP/src/core/ipv4/etharp.c ****       }
 1660              		.loc 1 228 9 is_stmt 1 view .LVU456
 228:Middlewares/Third_Party/LwIP/src/core/ipv4/etharp.c ****       }
 1661              		.loc 1 228 44 is_stmt 0 view .LVU457
 1662 004e 04EB4402 		add	r2, r4, r4, lsl #1
 1663              	.LVL156:
 228:Middlewares/Third_Party/LwIP/src/core/ipv4/etharp.c ****       }
 1664              		.loc 1 228 44 view .LVU458
 1665 0052 D300     		lsls	r3, r2, #3
 1666 0054 0B4A     		ldr	r2, .L130
 1667 0056 1344     		add	r3, r3, r2
 228:Middlewares/Third_Party/LwIP/src/core/ipv4/etharp.c ****       }
 1668              		.loc 1 228 9 view .LVU459
 1669 0058 191D     		adds	r1, r3, #4
 1670              	.LVL157:
 228:Middlewares/Third_Party/LwIP/src/core/ipv4/etharp.c ****       }
 1671              		.loc 1 228 9 view .LVU460
 1672 005a 9868     		ldr	r0, [r3, #8]
 1673 005c FFF7FEFF 		bl	etharp_request
 1674              	.LVL158:
 228:Middlewares/Third_Party/LwIP/src/core/ipv4/etharp.c ****       }
 1675              		.loc 1 228 9 view .LVU461
 1676 0060 D6E7     		b	.L119
 1677              	.LVL159:
 1678              	.L128:
 221:Middlewares/Third_Party/LwIP/src/core/ipv4/etharp.c ****       } else if (arp_table[i].state == ETHARP_STATE_STABLE_REREQUESTING_2) {
 1679              		.loc 1 221 9 is_stmt 1 view .LVU462
 221:Middlewares/Third_Party/LwIP/src/core/ipv4/etharp.c ****       } else if (arp_table[i].state == ETHARP_STATE_STABLE_REREQUESTING_2) {
 1680              		.loc 1 221 28 is_stmt 0 view .LVU463
ARM GAS  /var/folders/6z/bj4rvlwn0mvdnknwnn42jd6r0000gn/T//ccvcQ9wF.s 			page 57


 1681 0062 04EB4403 		add	r3, r4, r4, lsl #1
 1682 0066 DA00     		lsls	r2, r3, #3
 1683              	.LVL160:
 221:Middlewares/Third_Party/LwIP/src/core/ipv4/etharp.c ****       } else if (arp_table[i].state == ETHARP_STATE_STABLE_REREQUESTING_2) {
 1684              		.loc 1 221 28 view .LVU464
 1685 0068 064B     		ldr	r3, .L130
 1686 006a 1344     		add	r3, r3, r2
 1687 006c 0422     		movs	r2, #4
 1688 006e 1A75     		strb	r2, [r3, #20]
 1689              	.LVL161:
 221:Middlewares/Third_Party/LwIP/src/core/ipv4/etharp.c ****       } else if (arp_table[i].state == ETHARP_STATE_STABLE_REREQUESTING_2) {
 1690              		.loc 1 221 28 view .LVU465
 1691 0070 CEE7     		b	.L119
 1692              	.LVL162:
 1693              	.L129:
 225:Middlewares/Third_Party/LwIP/src/core/ipv4/etharp.c ****       } else if (arp_table[i].state == ETHARP_STATE_PENDING) {
 1694              		.loc 1 225 9 is_stmt 1 view .LVU466
 225:Middlewares/Third_Party/LwIP/src/core/ipv4/etharp.c ****       } else if (arp_table[i].state == ETHARP_STATE_PENDING) {
 1695              		.loc 1 225 28 is_stmt 0 view .LVU467
 1696 0072 04EB4403 		add	r3, r4, r4, lsl #1
 1697 0076 DA00     		lsls	r2, r3, #3
 1698              	.LVL163:
 225:Middlewares/Third_Party/LwIP/src/core/ipv4/etharp.c ****       } else if (arp_table[i].state == ETHARP_STATE_PENDING) {
 1699              		.loc 1 225 28 view .LVU468
 1700 0078 024B     		ldr	r3, .L130
 1701 007a 1344     		add	r3, r3, r2
 1702 007c 0222     		movs	r2, #2
 1703 007e 1A75     		strb	r2, [r3, #20]
 1704              	.LVL164:
 225:Middlewares/Third_Party/LwIP/src/core/ipv4/etharp.c ****       } else if (arp_table[i].state == ETHARP_STATE_PENDING) {
 1705              		.loc 1 225 28 view .LVU469
 1706 0080 C6E7     		b	.L119
 1707              	.LVL165:
 1708              	.L126:
 225:Middlewares/Third_Party/LwIP/src/core/ipv4/etharp.c ****       } else if (arp_table[i].state == ETHARP_STATE_PENDING) {
 1709              		.loc 1 225 28 view .LVU470
 1710              	.LBE8:
 232:Middlewares/Third_Party/LwIP/src/core/ipv4/etharp.c **** 
 1711              		.loc 1 232 1 view .LVU471
 1712 0082 10BD     		pop	{r4, pc}
 1713              	.LVL166:
 1714              	.L131:
 232:Middlewares/Third_Party/LwIP/src/core/ipv4/etharp.c **** 
 1715              		.loc 1 232 1 view .LVU472
 1716              		.align	2
 1717              	.L130:
 1718 0084 00000000 		.word	arp_table
 1719              		.cfi_endproc
 1720              	.LFE171:
 1722              		.section	.rodata.etharp_output_to_arp_index.str1.4,"aMS",%progbits,1
 1723              		.align	2
 1724              	.LC12:
 1725 0000 6172705F 		.ascii	"arp_table[arp_idx].state >= ETHARP_STATE_STABLE\000"
 1725      7461626C 
 1725      655B6172 
 1725      705F6964 
 1725      785D2E73 
ARM GAS  /var/folders/6z/bj4rvlwn0mvdnknwnn42jd6r0000gn/T//ccvcQ9wF.s 			page 58


 1726              		.section	.text.etharp_output_to_arp_index,"ax",%progbits
 1727              		.align	1
 1728              		.syntax unified
 1729              		.thumb
 1730              		.thumb_func
 1732              	etharp_output_to_arp_index:
 1733              	.LVL167:
 1734              	.LFB178:
 749:Middlewares/Third_Party/LwIP/src/core/ipv4/etharp.c ****   LWIP_ASSERT("arp_table[arp_idx].state >= ETHARP_STATE_STABLE",
 1735              		.loc 1 749 1 is_stmt 1 view -0
 1736              		.cfi_startproc
 1737              		@ args = 0, pretend = 0, frame = 0
 1738              		@ frame_needed = 0, uses_anonymous_args = 0
 749:Middlewares/Third_Party/LwIP/src/core/ipv4/etharp.c ****   LWIP_ASSERT("arp_table[arp_idx].state >= ETHARP_STATE_STABLE",
 1739              		.loc 1 749 1 is_stmt 0 view .LVU474
 1740 0000 70B5     		push	{r4, r5, r6, lr}
 1741              	.LCFI25:
 1742              		.cfi_def_cfa_offset 16
 1743              		.cfi_offset 4, -16
 1744              		.cfi_offset 5, -12
 1745              		.cfi_offset 6, -8
 1746              		.cfi_offset 14, -4
 1747 0002 82B0     		sub	sp, sp, #8
 1748              	.LCFI26:
 1749              		.cfi_def_cfa_offset 24
 1750 0004 0546     		mov	r5, r0
 1751 0006 0E46     		mov	r6, r1
 1752 0008 1446     		mov	r4, r2
 750:Middlewares/Third_Party/LwIP/src/core/ipv4/etharp.c ****               arp_table[arp_idx].state >= ETHARP_STATE_STABLE);
 1753              		.loc 1 750 3 is_stmt 1 view .LVU475
 750:Middlewares/Third_Party/LwIP/src/core/ipv4/etharp.c ****               arp_table[arp_idx].state >= ETHARP_STATE_STABLE);
 1754              		.loc 1 750 3 view .LVU476
 1755 000a 02EB4202 		add	r2, r2, r2, lsl #1
 1756              	.LVL168:
 750:Middlewares/Third_Party/LwIP/src/core/ipv4/etharp.c ****               arp_table[arp_idx].state >= ETHARP_STATE_STABLE);
 1757              		.loc 1 750 3 is_stmt 0 view .LVU477
 1758 000e 2E4B     		ldr	r3, .L140
 1759 0010 03EBC203 		add	r3, r3, r2, lsl #3
 1760 0014 1B7D     		ldrb	r3, [r3, #20]	@ zero_extendqisi2
 1761 0016 012B     		cmp	r3, #1
 1762 0018 19D9     		bls	.L137
 1763              	.LVL169:
 1764              	.L133:
 750:Middlewares/Third_Party/LwIP/src/core/ipv4/etharp.c ****               arp_table[arp_idx].state >= ETHARP_STATE_STABLE);
 1765              		.loc 1 750 3 is_stmt 1 view .LVU478
 750:Middlewares/Third_Party/LwIP/src/core/ipv4/etharp.c ****               arp_table[arp_idx].state >= ETHARP_STATE_STABLE);
 1766              		.loc 1 750 3 view .LVU479
 755:Middlewares/Third_Party/LwIP/src/core/ipv4/etharp.c ****     if (arp_table[arp_idx].ctime >= ARP_AGE_REREQUEST_USED_BROADCAST) {
 1767              		.loc 1 755 3 view .LVU480
 755:Middlewares/Third_Party/LwIP/src/core/ipv4/etharp.c ****     if (arp_table[arp_idx].ctime >= ARP_AGE_REREQUEST_USED_BROADCAST) {
 1768              		.loc 1 755 25 is_stmt 0 view .LVU481
 1769 001a 04EB4402 		add	r2, r4, r4, lsl #1
 1770 001e 2A4B     		ldr	r3, .L140
 1771 0020 03EBC203 		add	r3, r3, r2, lsl #3
 1772 0024 1B7D     		ldrb	r3, [r3, #20]	@ zero_extendqisi2
 755:Middlewares/Third_Party/LwIP/src/core/ipv4/etharp.c ****     if (arp_table[arp_idx].ctime >= ARP_AGE_REREQUEST_USED_BROADCAST) {
 1773              		.loc 1 755 6 view .LVU482
ARM GAS  /var/folders/6z/bj4rvlwn0mvdnknwnn42jd6r0000gn/T//ccvcQ9wF.s 			page 59


 1774 0026 022B     		cmp	r3, #2
 1775 0028 19D0     		beq	.L138
 1776              	.L134:
 769:Middlewares/Third_Party/LwIP/src/core/ipv4/etharp.c **** }
 1777              		.loc 1 769 3 is_stmt 1 view .LVU483
 769:Middlewares/Third_Party/LwIP/src/core/ipv4/etharp.c **** }
 1778              		.loc 1 769 72 is_stmt 0 view .LVU484
 1779 002a 04EB4403 		add	r3, r4, r4, lsl #1
 1780 002e DB00     		lsls	r3, r3, #3
 1781 0030 0833     		adds	r3, r3, #8
 1782 0032 254A     		ldr	r2, .L140
 1783 0034 1344     		add	r3, r3, r2
 769:Middlewares/Third_Party/LwIP/src/core/ipv4/etharp.c **** }
 1784              		.loc 1 769 10 view .LVU485
 1785 0036 4FF40062 		mov	r2, #2048
 1786 003a 0092     		str	r2, [sp]
 1787 003c 0433     		adds	r3, r3, #4
 1788 003e 05F12602 		add	r2, r5, #38
 1789 0042 3146     		mov	r1, r6
 1790 0044 2846     		mov	r0, r5
 1791 0046 FFF7FEFF 		bl	ethernet_output
 1792              	.LVL170:
 770:Middlewares/Third_Party/LwIP/src/core/ipv4/etharp.c **** 
 1793              		.loc 1 770 1 view .LVU486
 1794 004a 02B0     		add	sp, sp, #8
 1795              	.LCFI27:
 1796              		.cfi_remember_state
 1797              		.cfi_def_cfa_offset 16
 1798              		@ sp needed
 1799 004c 70BD     		pop	{r4, r5, r6, pc}
 1800              	.LVL171:
 1801              	.L137:
 1802              	.LCFI28:
 1803              		.cfi_restore_state
 750:Middlewares/Third_Party/LwIP/src/core/ipv4/etharp.c ****               arp_table[arp_idx].state >= ETHARP_STATE_STABLE);
 1804              		.loc 1 750 3 is_stmt 1 discriminator 1 view .LVU487
 750:Middlewares/Third_Party/LwIP/src/core/ipv4/etharp.c ****               arp_table[arp_idx].state >= ETHARP_STATE_STABLE);
 1805              		.loc 1 750 3 discriminator 1 view .LVU488
 1806 004e 1F4B     		ldr	r3, .L140+4
 1807 0050 40F2EE22 		movw	r2, #750
 1808 0054 1E49     		ldr	r1, .L140+8
 1809              	.LVL172:
 750:Middlewares/Third_Party/LwIP/src/core/ipv4/etharp.c ****               arp_table[arp_idx].state >= ETHARP_STATE_STABLE);
 1810              		.loc 1 750 3 is_stmt 0 discriminator 1 view .LVU489
 1811 0056 1F48     		ldr	r0, .L140+12
 1812              	.LVL173:
 750:Middlewares/Third_Party/LwIP/src/core/ipv4/etharp.c ****               arp_table[arp_idx].state >= ETHARP_STATE_STABLE);
 1813              		.loc 1 750 3 discriminator 1 view .LVU490
 1814 0058 FFF7FEFF 		bl	printf
 1815              	.LVL174:
 1816 005c DDE7     		b	.L133
 1817              	.L138:
 756:Middlewares/Third_Party/LwIP/src/core/ipv4/etharp.c ****       /* issue a standard request using broadcast */
 1818              		.loc 1 756 5 is_stmt 1 view .LVU491
 756:Middlewares/Third_Party/LwIP/src/core/ipv4/etharp.c ****       /* issue a standard request using broadcast */
 1819              		.loc 1 756 27 is_stmt 0 view .LVU492
 1820 005e 1A4B     		ldr	r3, .L140
ARM GAS  /var/folders/6z/bj4rvlwn0mvdnknwnn42jd6r0000gn/T//ccvcQ9wF.s 			page 60


 1821 0060 03EBC203 		add	r3, r3, r2, lsl #3
 1822 0064 5B8A     		ldrh	r3, [r3, #18]
 756:Middlewares/Third_Party/LwIP/src/core/ipv4/etharp.c ****       /* issue a standard request using broadcast */
 1823              		.loc 1 756 8 view .LVU493
 1824 0066 B3F58E7F 		cmp	r3, #284
 1825 006a 1BD8     		bhi	.L139
 761:Middlewares/Third_Party/LwIP/src/core/ipv4/etharp.c ****       /* issue a unicast request (for 15 seconds) to prevent unnecessary broadcast */
 1826              		.loc 1 761 12 is_stmt 1 view .LVU494
 761:Middlewares/Third_Party/LwIP/src/core/ipv4/etharp.c ****       /* issue a unicast request (for 15 seconds) to prevent unnecessary broadcast */
 1827              		.loc 1 761 15 is_stmt 0 view .LVU495
 1828 006c B3F5877F 		cmp	r3, #270
 1829 0070 DBD3     		bcc	.L134
 763:Middlewares/Third_Party/LwIP/src/core/ipv4/etharp.c ****         arp_table[arp_idx].state = ETHARP_STATE_STABLE_REREQUESTING_1;
 1830              		.loc 1 763 7 is_stmt 1 view .LVU496
 763:Middlewares/Third_Party/LwIP/src/core/ipv4/etharp.c ****         arp_table[arp_idx].state = ETHARP_STATE_STABLE_REREQUESTING_1;
 1831              		.loc 1 763 37 is_stmt 0 view .LVU497
 1832 0072 04EB4401 		add	r1, r4, r4, lsl #1
 1833 0076 144B     		ldr	r3, .L140
 1834 0078 03EBC101 		add	r1, r3, r1, lsl #3
 763:Middlewares/Third_Party/LwIP/src/core/ipv4/etharp.c ****         arp_table[arp_idx].state = ETHARP_STATE_STABLE_REREQUESTING_1;
 1835              		.loc 1 763 65 view .LVU498
 1836 007c 04EB4402 		add	r2, r4, r4, lsl #1
 1837 0080 D200     		lsls	r2, r2, #3
 1838 0082 0832     		adds	r2, r2, #8
 1839 0084 1A44     		add	r2, r2, r3
 763:Middlewares/Third_Party/LwIP/src/core/ipv4/etharp.c ****         arp_table[arp_idx].state = ETHARP_STATE_STABLE_REREQUESTING_1;
 1840              		.loc 1 763 11 view .LVU499
 1841 0086 0432     		adds	r2, r2, #4
 1842 0088 0431     		adds	r1, r1, #4
 1843 008a 2846     		mov	r0, r5
 1844 008c FFF7FEFF 		bl	etharp_request_dst
 1845              	.LVL175:
 763:Middlewares/Third_Party/LwIP/src/core/ipv4/etharp.c ****         arp_table[arp_idx].state = ETHARP_STATE_STABLE_REREQUESTING_1;
 1846              		.loc 1 763 10 discriminator 1 view .LVU500
 1847 0090 0028     		cmp	r0, #0
 1848 0092 CAD1     		bne	.L134
 764:Middlewares/Third_Party/LwIP/src/core/ipv4/etharp.c ****       }
 1849              		.loc 1 764 9 is_stmt 1 view .LVU501
 764:Middlewares/Third_Party/LwIP/src/core/ipv4/etharp.c ****       }
 1850              		.loc 1 764 34 is_stmt 0 view .LVU502
 1851 0094 04EB4402 		add	r2, r4, r4, lsl #1
 1852 0098 0B4B     		ldr	r3, .L140
 1853 009a 03EBC203 		add	r3, r3, r2, lsl #3
 1854 009e 0322     		movs	r2, #3
 1855 00a0 1A75     		strb	r2, [r3, #20]
 1856 00a2 C2E7     		b	.L134
 1857              	.L139:
 758:Middlewares/Third_Party/LwIP/src/core/ipv4/etharp.c ****         arp_table[arp_idx].state = ETHARP_STATE_STABLE_REREQUESTING_1;
 1858              		.loc 1 758 7 is_stmt 1 view .LVU503
 758:Middlewares/Third_Party/LwIP/src/core/ipv4/etharp.c ****         arp_table[arp_idx].state = ETHARP_STATE_STABLE_REREQUESTING_1;
 1859              		.loc 1 758 33 is_stmt 0 view .LVU504
 1860 00a4 0849     		ldr	r1, .L140
 1861 00a6 01EBC201 		add	r1, r1, r2, lsl #3
 758:Middlewares/Third_Party/LwIP/src/core/ipv4/etharp.c ****         arp_table[arp_idx].state = ETHARP_STATE_STABLE_REREQUESTING_1;
 1862              		.loc 1 758 11 view .LVU505
 1863 00aa 0431     		adds	r1, r1, #4
 1864 00ac 2846     		mov	r0, r5
ARM GAS  /var/folders/6z/bj4rvlwn0mvdnknwnn42jd6r0000gn/T//ccvcQ9wF.s 			page 61


 1865 00ae FFF7FEFF 		bl	etharp_request
 1866              	.LVL176:
 758:Middlewares/Third_Party/LwIP/src/core/ipv4/etharp.c ****         arp_table[arp_idx].state = ETHARP_STATE_STABLE_REREQUESTING_1;
 1867              		.loc 1 758 10 discriminator 1 view .LVU506
 1868 00b2 0028     		cmp	r0, #0
 1869 00b4 B9D1     		bne	.L134
 759:Middlewares/Third_Party/LwIP/src/core/ipv4/etharp.c ****       }
 1870              		.loc 1 759 9 is_stmt 1 view .LVU507
 759:Middlewares/Third_Party/LwIP/src/core/ipv4/etharp.c ****       }
 1871              		.loc 1 759 34 is_stmt 0 view .LVU508
 1872 00b6 04EB4402 		add	r2, r4, r4, lsl #1
 1873 00ba 034B     		ldr	r3, .L140
 1874 00bc 03EBC203 		add	r3, r3, r2, lsl #3
 1875 00c0 0322     		movs	r2, #3
 1876 00c2 1A75     		strb	r2, [r3, #20]
 1877 00c4 B1E7     		b	.L134
 1878              	.L141:
 1879 00c6 00BF     		.align	2
 1880              	.L140:
 1881 00c8 00000000 		.word	arp_table
 1882 00cc 00000000 		.word	.LC0
 1883 00d0 00000000 		.word	.LC12
 1884 00d4 4C000000 		.word	.LC2
 1885              		.cfi_endproc
 1886              	.LFE178:
 1888              		.section	.rodata.etharp_query.str1.4,"aMS",%progbits,1
 1889              		.align	2
 1890              	.LC13:
 1891 0000 74797065 		.ascii	"type overflow\000"
 1891      206F7665 
 1891      72666C6F 
 1891      7700
 1892 000e 0000     		.align	2
 1893              	.LC14:
 1894 0010 6172705F 		.ascii	"arp_table[i].state == PENDING or STABLE\000"
 1894      7461626C 
 1894      655B695D 
 1894      2E737461 
 1894      7465203D 
 1895              		.align	2
 1896              	.LC15:
 1897 0038 6E6F2070 		.ascii	"no packet queues allowed!\000"
 1897      61636B65 
 1897      74207175 
 1897      65756573 
 1897      20616C6C 
 1898              		.section	.text.etharp_query,"ax",%progbits
 1899              		.align	1
 1900              		.global	etharp_query
 1901              		.syntax unified
 1902              		.thumb
 1903              		.thumb_func
 1905              	etharp_query:
 1906              	.LVL177:
 1907              	.LFB180:
 934:Middlewares/Third_Party/LwIP/src/core/ipv4/etharp.c ****   struct eth_addr *srcaddr = (struct eth_addr *)netif->hwaddr;
 1908              		.loc 1 934 1 is_stmt 1 view -0
ARM GAS  /var/folders/6z/bj4rvlwn0mvdnknwnn42jd6r0000gn/T//ccvcQ9wF.s 			page 62


 1909              		.cfi_startproc
 1910              		@ args = 0, pretend = 0, frame = 0
 1911              		@ frame_needed = 0, uses_anonymous_args = 0
 934:Middlewares/Third_Party/LwIP/src/core/ipv4/etharp.c ****   struct eth_addr *srcaddr = (struct eth_addr *)netif->hwaddr;
 1912              		.loc 1 934 1 is_stmt 0 view .LVU510
 1913 0000 2DE9F043 		push	{r4, r5, r6, r7, r8, r9, lr}
 1914              	.LCFI29:
 1915              		.cfi_def_cfa_offset 28
 1916              		.cfi_offset 4, -28
 1917              		.cfi_offset 5, -24
 1918              		.cfi_offset 6, -20
 1919              		.cfi_offset 7, -16
 1920              		.cfi_offset 8, -12
 1921              		.cfi_offset 9, -8
 1922              		.cfi_offset 14, -4
 1923 0004 83B0     		sub	sp, sp, #12
 1924              	.LCFI30:
 1925              		.cfi_def_cfa_offset 40
 1926 0006 0546     		mov	r5, r0
 1927 0008 8846     		mov	r8, r1
 1928 000a 1646     		mov	r6, r2
 935:Middlewares/Third_Party/LwIP/src/core/ipv4/etharp.c ****   err_t result = ERR_MEM;
 1929              		.loc 1 935 3 is_stmt 1 view .LVU511
 935:Middlewares/Third_Party/LwIP/src/core/ipv4/etharp.c ****   err_t result = ERR_MEM;
 1930              		.loc 1 935 20 is_stmt 0 view .LVU512
 1931 000c 00F12607 		add	r7, r0, #38
 1932              	.LVL178:
 936:Middlewares/Third_Party/LwIP/src/core/ipv4/etharp.c ****   int is_new_entry = 0;
 1933              		.loc 1 936 3 is_stmt 1 view .LVU513
 937:Middlewares/Third_Party/LwIP/src/core/ipv4/etharp.c ****   s16_t i_err;
 1934              		.loc 1 937 3 view .LVU514
 938:Middlewares/Third_Party/LwIP/src/core/ipv4/etharp.c ****   netif_addr_idx_t i;
 1935              		.loc 1 938 3 view .LVU515
 939:Middlewares/Third_Party/LwIP/src/core/ipv4/etharp.c **** 
 1936              		.loc 1 939 3 view .LVU516
 942:Middlewares/Third_Party/LwIP/src/core/ipv4/etharp.c ****       ip4_addr_ismulticast(ipaddr) ||
 1937              		.loc 1 942 3 view .LVU517
 942:Middlewares/Third_Party/LwIP/src/core/ipv4/etharp.c ****       ip4_addr_ismulticast(ipaddr) ||
 1938              		.loc 1 942 7 is_stmt 0 view .LVU518
 1939 0010 0146     		mov	r1, r0
 1940              	.LVL179:
 942:Middlewares/Third_Party/LwIP/src/core/ipv4/etharp.c ****       ip4_addr_ismulticast(ipaddr) ||
 1941              		.loc 1 942 7 view .LVU519
 1942 0012 D8F80000 		ldr	r0, [r8]
 1943              	.LVL180:
 942:Middlewares/Third_Party/LwIP/src/core/ipv4/etharp.c ****       ip4_addr_ismulticast(ipaddr) ||
 1944              		.loc 1 942 7 view .LVU520
 1945 0016 FFF7FEFF 		bl	ip4_addr_isbroadcast_u32
 1946              	.LVL181:
 942:Middlewares/Third_Party/LwIP/src/core/ipv4/etharp.c ****       ip4_addr_ismulticast(ipaddr) ||
 1947              		.loc 1 942 6 discriminator 1 view .LVU521
 1948 001a 0028     		cmp	r0, #0
 1949 001c 40F0A180 		bne	.L157
 943:Middlewares/Third_Party/LwIP/src/core/ipv4/etharp.c ****       ip4_addr_isany(ipaddr)) {
 1950              		.loc 1 943 7 view .LVU522
 1951 0020 D8F80030 		ldr	r3, [r8]
 1952 0024 03F0F002 		and	r2, r3, #240
ARM GAS  /var/folders/6z/bj4rvlwn0mvdnknwnn42jd6r0000gn/T//ccvcQ9wF.s 			page 63


 942:Middlewares/Third_Party/LwIP/src/core/ipv4/etharp.c ****       ip4_addr_ismulticast(ipaddr) ||
 1953              		.loc 1 942 43 discriminator 1 view .LVU523
 1954 0028 E02A     		cmp	r2, #224
 1955 002a 00F09D80 		beq	.L158
 944:Middlewares/Third_Party/LwIP/src/core/ipv4/etharp.c ****     LWIP_DEBUGF(ETHARP_DEBUG | LWIP_DBG_TRACE, ("etharp_query: will not add non-unicast IP address 
 1956              		.loc 1 944 7 view .LVU524
 1957 002e 002B     		cmp	r3, #0
 1958 0030 00F09D80 		beq	.L159
 950:Middlewares/Third_Party/LwIP/src/core/ipv4/etharp.c **** 
 1959              		.loc 1 950 3 is_stmt 1 view .LVU525
 950:Middlewares/Third_Party/LwIP/src/core/ipv4/etharp.c **** 
 1960              		.loc 1 950 11 is_stmt 0 view .LVU526
 1961 0034 2A46     		mov	r2, r5
 1962 0036 0121     		movs	r1, #1
 1963 0038 4046     		mov	r0, r8
 1964 003a FFF7FEFF 		bl	etharp_find_entry
 1965              	.LVL182:
 953:Middlewares/Third_Party/LwIP/src/core/ipv4/etharp.c ****     LWIP_DEBUGF(ETHARP_DEBUG | LWIP_DBG_TRACE, ("etharp_query: could not create ARP entry\n"));
 1966              		.loc 1 953 3 is_stmt 1 view .LVU527
 953:Middlewares/Third_Party/LwIP/src/core/ipv4/etharp.c ****     LWIP_DEBUGF(ETHARP_DEBUG | LWIP_DBG_TRACE, ("etharp_query: could not create ARP entry\n"));
 1967              		.loc 1 953 6 is_stmt 0 view .LVU528
 1968 003e 041E     		subs	r4, r0, #0
 1969 0040 2DDB     		blt	.L166
 961:Middlewares/Third_Party/LwIP/src/core/ipv4/etharp.c ****   i = (netif_addr_idx_t)i_err;
 1970              		.loc 1 961 3 is_stmt 1 view .LVU529
 961:Middlewares/Third_Party/LwIP/src/core/ipv4/etharp.c ****   i = (netif_addr_idx_t)i_err;
 1971              		.loc 1 961 3 view .LVU530
 1972 0042 A3B2     		uxth	r3, r4
 1973 0044 7E2B     		cmp	r3, #126
 1974 0046 2CD8     		bhi	.L167
 1975              	.LVL183:
 1976              	.L145:
 961:Middlewares/Third_Party/LwIP/src/core/ipv4/etharp.c ****   i = (netif_addr_idx_t)i_err;
 1977              		.loc 1 961 3 view .LVU531
 961:Middlewares/Third_Party/LwIP/src/core/ipv4/etharp.c ****   i = (netif_addr_idx_t)i_err;
 1978              		.loc 1 961 3 view .LVU532
 962:Middlewares/Third_Party/LwIP/src/core/ipv4/etharp.c **** 
 1979              		.loc 1 962 3 view .LVU533
 962:Middlewares/Third_Party/LwIP/src/core/ipv4/etharp.c **** 
 1980              		.loc 1 962 5 is_stmt 0 view .LVU534
 1981 0048 E4B2     		uxtb	r4, r4
 1982              	.LVL184:
 965:Middlewares/Third_Party/LwIP/src/core/ipv4/etharp.c ****     is_new_entry = 1;
 1983              		.loc 1 965 3 is_stmt 1 view .LVU535
 965:Middlewares/Third_Party/LwIP/src/core/ipv4/etharp.c ****     is_new_entry = 1;
 1984              		.loc 1 965 19 is_stmt 0 view .LVU536
 1985 004a 04EB4402 		add	r2, r4, r4, lsl #1
 1986 004e 4B4B     		ldr	r3, .L172
 1987 0050 03EBC203 		add	r3, r3, r2, lsl #3
 1988 0054 1B7D     		ldrb	r3, [r3, #20]	@ zero_extendqisi2
 965:Middlewares/Third_Party/LwIP/src/core/ipv4/etharp.c ****     is_new_entry = 1;
 1989              		.loc 1 965 6 view .LVU537
 1990 0056 63BB     		cbnz	r3, .L160
 966:Middlewares/Third_Party/LwIP/src/core/ipv4/etharp.c ****     arp_table[i].state = ETHARP_STATE_PENDING;
 1991              		.loc 1 966 5 is_stmt 1 view .LVU538
 1992              	.LVL185:
 967:Middlewares/Third_Party/LwIP/src/core/ipv4/etharp.c ****     /* record network interface for re-sending arp request in etharp_tmr */
ARM GAS  /var/folders/6z/bj4rvlwn0mvdnknwnn42jd6r0000gn/T//ccvcQ9wF.s 			page 64


 1993              		.loc 1 967 5 view .LVU539
 967:Middlewares/Third_Party/LwIP/src/core/ipv4/etharp.c ****     /* record network interface for re-sending arp request in etharp_tmr */
 1994              		.loc 1 967 24 is_stmt 0 view .LVU540
 1995 0058 484B     		ldr	r3, .L172
 1996 005a 03EBC203 		add	r3, r3, r2, lsl #3
 1997 005e 4FF00109 		mov	r9, #1
 1998 0062 83F81490 		strb	r9, [r3, #20]
 969:Middlewares/Third_Party/LwIP/src/core/ipv4/etharp.c ****   }
 1999              		.loc 1 969 5 is_stmt 1 view .LVU541
 969:Middlewares/Third_Party/LwIP/src/core/ipv4/etharp.c ****   }
 2000              		.loc 1 969 24 is_stmt 0 view .LVU542
 2001 0066 9D60     		str	r5, [r3, #8]
 2002              	.LVL186:
 2003              	.L146:
 973:Middlewares/Third_Party/LwIP/src/core/ipv4/etharp.c ****               ((arp_table[i].state == ETHARP_STATE_PENDING) ||
 2004              		.loc 1 973 3 is_stmt 1 view .LVU543
 973:Middlewares/Third_Party/LwIP/src/core/ipv4/etharp.c ****               ((arp_table[i].state == ETHARP_STATE_PENDING) ||
 2005              		.loc 1 973 3 view .LVU544
 2006 0068 04EB4402 		add	r2, r4, r4, lsl #1
 2007 006c 434B     		ldr	r3, .L172
 2008 006e 03EBC203 		add	r3, r3, r2, lsl #3
 2009 0072 1B7D     		ldrb	r3, [r3, #20]	@ zero_extendqisi2
 2010 0074 03B3     		cbz	r3, .L168
 2011              	.L147:
 973:Middlewares/Third_Party/LwIP/src/core/ipv4/etharp.c ****               ((arp_table[i].state == ETHARP_STATE_PENDING) ||
 2012              		.loc 1 973 3 view .LVU545
 973:Middlewares/Third_Party/LwIP/src/core/ipv4/etharp.c ****               ((arp_table[i].state == ETHARP_STATE_PENDING) ||
 2013              		.loc 1 973 3 view .LVU546
 978:Middlewares/Third_Party/LwIP/src/core/ipv4/etharp.c ****     /* try to resolve it; send out ARP request */
 2014              		.loc 1 978 3 view .LVU547
 978:Middlewares/Third_Party/LwIP/src/core/ipv4/etharp.c ****     /* try to resolve it; send out ARP request */
 2015              		.loc 1 978 20 is_stmt 0 view .LVU548
 2016 0076 002E     		cmp	r6, #0
 2017 0078 14BF     		ite	ne
 2018 007a 4B46     		movne	r3, r9
 2019 007c 49F00103 		orreq	r3, r9, #1
 978:Middlewares/Third_Party/LwIP/src/core/ipv4/etharp.c ****     /* try to resolve it; send out ARP request */
 2020              		.loc 1 978 6 view .LVU549
 2021 0080 13BB     		cbnz	r3, .L169
 936:Middlewares/Third_Party/LwIP/src/core/ipv4/etharp.c ****   int is_new_entry = 0;
 2022              		.loc 1 936 9 view .LVU550
 2023 0082 4FF0FF30 		mov	r0, #-1
 2024              	.LVL187:
 2025              	.L148:
 993:Middlewares/Third_Party/LwIP/src/core/ipv4/etharp.c ****   /* stable entry? */
 2026              		.loc 1 993 3 is_stmt 1 view .LVU551
 993:Middlewares/Third_Party/LwIP/src/core/ipv4/etharp.c ****   /* stable entry? */
 2027              		.loc 1 993 3 view .LVU552
 995:Middlewares/Third_Party/LwIP/src/core/ipv4/etharp.c ****     /* we have a valid IP->Ethernet address mapping */
 2028              		.loc 1 995 3 view .LVU553
 995:Middlewares/Third_Party/LwIP/src/core/ipv4/etharp.c ****     /* we have a valid IP->Ethernet address mapping */
 2029              		.loc 1 995 19 is_stmt 0 view .LVU554
 2030 0086 04EB4402 		add	r2, r4, r4, lsl #1
 2031 008a 3C4B     		ldr	r3, .L172
 2032 008c 03EBC203 		add	r3, r3, r2, lsl #3
 2033 0090 1B7D     		ldrb	r3, [r3, #20]	@ zero_extendqisi2
 995:Middlewares/Third_Party/LwIP/src/core/ipv4/etharp.c ****     /* we have a valid IP->Ethernet address mapping */
ARM GAS  /var/folders/6z/bj4rvlwn0mvdnknwnn42jd6r0000gn/T//ccvcQ9wF.s 			page 65


 2034              		.loc 1 995 6 view .LVU555
 2035 0092 012B     		cmp	r3, #1
 2036 0094 1FD8     		bhi	.L170
1001:Middlewares/Third_Party/LwIP/src/core/ipv4/etharp.c ****     /* entry is still pending, queue the given packet 'q' */
 2037              		.loc 1 1001 10 is_stmt 1 view .LVU556
1001:Middlewares/Third_Party/LwIP/src/core/ipv4/etharp.c ****     /* entry is still pending, queue the given packet 'q' */
 2038              		.loc 1 1001 13 is_stmt 0 view .LVU557
 2039 0096 012B     		cmp	r3, #1
 2040 0098 2CD1     		bne	.L143
 2041              	.LBB9:
1007:Middlewares/Third_Party/LwIP/src/core/ipv4/etharp.c ****     while (p) {
 2042              		.loc 1 1007 7 view .LVU558
 2043 009a 3546     		mov	r5, r6
 2044              	.LVL188:
1007:Middlewares/Third_Party/LwIP/src/core/ipv4/etharp.c ****     while (p) {
 2045              		.loc 1 1007 7 view .LVU559
 2046 009c 32E0     		b	.L150
 2047              	.LVL189:
 2048              	.L166:
1007:Middlewares/Third_Party/LwIP/src/core/ipv4/etharp.c ****     while (p) {
 2049              		.loc 1 1007 7 view .LVU560
 2050              	.LBE9:
 954:Middlewares/Third_Party/LwIP/src/core/ipv4/etharp.c ****     if (q) {
 2051              		.loc 1 954 95 is_stmt 1 view .LVU561
 955:Middlewares/Third_Party/LwIP/src/core/ipv4/etharp.c ****       LWIP_DEBUGF(ETHARP_DEBUG | LWIP_DBG_TRACE, ("etharp_query: packet dropped\n"));
 2052              		.loc 1 955 5 view .LVU562
 956:Middlewares/Third_Party/LwIP/src/core/ipv4/etharp.c ****       ETHARP_STATS_INC(etharp.memerr);
 2053              		.loc 1 956 85 view .LVU563
 957:Middlewares/Third_Party/LwIP/src/core/ipv4/etharp.c ****     }
 2054              		.loc 1 957 38 view .LVU564
 959:Middlewares/Third_Party/LwIP/src/core/ipv4/etharp.c ****   }
 2055              		.loc 1 959 5 view .LVU565
 959:Middlewares/Third_Party/LwIP/src/core/ipv4/etharp.c ****   }
 2056              		.loc 1 959 12 is_stmt 0 view .LVU566
 2057 009e 60B2     		sxtb	r0, r4
 2058              	.LVL190:
 959:Middlewares/Third_Party/LwIP/src/core/ipv4/etharp.c ****   }
 2059              		.loc 1 959 12 view .LVU567
 2060 00a0 28E0     		b	.L143
 2061              	.LVL191:
 2062              	.L167:
 961:Middlewares/Third_Party/LwIP/src/core/ipv4/etharp.c ****   i = (netif_addr_idx_t)i_err;
 2063              		.loc 1 961 3 is_stmt 1 discriminator 1 view .LVU568
 961:Middlewares/Third_Party/LwIP/src/core/ipv4/etharp.c ****   i = (netif_addr_idx_t)i_err;
 2064              		.loc 1 961 3 discriminator 1 view .LVU569
 2065 00a2 374B     		ldr	r3, .L172+4
 2066 00a4 40F2C132 		movw	r2, #961
 2067 00a8 3649     		ldr	r1, .L172+8
 2068 00aa 3748     		ldr	r0, .L172+12
 2069              	.LVL192:
 961:Middlewares/Third_Party/LwIP/src/core/ipv4/etharp.c ****   i = (netif_addr_idx_t)i_err;
 2070              		.loc 1 961 3 is_stmt 0 discriminator 1 view .LVU570
 2071 00ac FFF7FEFF 		bl	printf
 2072              	.LVL193:
 2073 00b0 CAE7     		b	.L145
 2074              	.LVL194:
 2075              	.L160:
ARM GAS  /var/folders/6z/bj4rvlwn0mvdnknwnn42jd6r0000gn/T//ccvcQ9wF.s 			page 66


 937:Middlewares/Third_Party/LwIP/src/core/ipv4/etharp.c ****   s16_t i_err;
 2076              		.loc 1 937 7 view .LVU571
 2077 00b2 4FF00009 		mov	r9, #0
 2078 00b6 D7E7     		b	.L146
 2079              	.LVL195:
 2080              	.L168:
 973:Middlewares/Third_Party/LwIP/src/core/ipv4/etharp.c ****               ((arp_table[i].state == ETHARP_STATE_PENDING) ||
 2081              		.loc 1 973 3 is_stmt 1 discriminator 1 view .LVU572
 973:Middlewares/Third_Party/LwIP/src/core/ipv4/etharp.c ****               ((arp_table[i].state == ETHARP_STATE_PENDING) ||
 2082              		.loc 1 973 3 discriminator 1 view .LVU573
 2083 00b8 314B     		ldr	r3, .L172+4
 2084 00ba 40F2CD32 		movw	r2, #973
 2085 00be 3349     		ldr	r1, .L172+16
 2086 00c0 3148     		ldr	r0, .L172+12
 2087 00c2 FFF7FEFF 		bl	printf
 2088              	.LVL196:
 2089 00c6 D6E7     		b	.L147
 2090              	.L169:
 980:Middlewares/Third_Party/LwIP/src/core/ipv4/etharp.c ****     if (result != ERR_OK) {
 2091              		.loc 1 980 5 view .LVU574
 980:Middlewares/Third_Party/LwIP/src/core/ipv4/etharp.c ****     if (result != ERR_OK) {
 2092              		.loc 1 980 14 is_stmt 0 view .LVU575
 2093 00c8 4146     		mov	r1, r8
 2094 00ca 2846     		mov	r0, r5
 2095 00cc FFF7FEFF 		bl	etharp_request
 2096              	.LVL197:
 981:Middlewares/Third_Party/LwIP/src/core/ipv4/etharp.c ****       /* ARP request couldn't be sent */
 2097              		.loc 1 981 5 is_stmt 1 view .LVU576
 986:Middlewares/Third_Party/LwIP/src/core/ipv4/etharp.c ****     if (q == NULL) {
 2098              		.loc 1 986 5 view .LVU577
 987:Middlewares/Third_Party/LwIP/src/core/ipv4/etharp.c ****       return result;
 2099              		.loc 1 987 5 view .LVU578
